
CableTesterATAx0001.elf:     file format elf32-littlearm

Sections:
Idx Name          Size      VMA       LMA       File off  Algn
  0 .isr_vector   000000bc  08000000  08000000  00010000  2**0
                  CONTENTS, ALLOC, LOAD, READONLY, DATA
  1 .text         000025f0  080000bc  080000bc  000100bc  2**2
                  CONTENTS, ALLOC, LOAD, READONLY, CODE
  2 .rodata       00000038  080026ac  080026ac  000126ac  2**2
                  CONTENTS, ALLOC, LOAD, READONLY, DATA
  3 .ARM.extab    00000000  080026e4  080026e4  00020030  2**0
                  CONTENTS
  4 .ARM          00000000  080026e4  080026e4  00020030  2**0
                  CONTENTS
  5 .preinit_array 00000000  080026e4  080026e4  00020030  2**0
                  CONTENTS, ALLOC, LOAD, DATA
  6 .init_array   00000004  080026e4  080026e4  000126e4  2**2
                  CONTENTS, ALLOC, LOAD, DATA
  7 .fini_array   00000004  080026e8  080026e8  000126e8  2**2
                  CONTENTS, ALLOC, LOAD, DATA
  8 .data         00000030  20000000  080026ec  00020000  2**2
                  CONTENTS, ALLOC, LOAD, DATA
  9 .bss          0000010c  20000030  0800271c  00020030  2**2
                  ALLOC
 10 ._user_heap_stack 00000604  2000013c  0800271c  0002013c  2**0
                  ALLOC
 11 .ARM.attributes 00000028  00000000  00000000  00020030  2**0
                  CONTENTS, READONLY
 12 .comment      00000043  00000000  00000000  00020058  2**0
                  CONTENTS, READONLY
 13 .debug_info   00007b1a  00000000  00000000  0002009b  2**0
                  CONTENTS, READONLY, DEBUGGING, OCTETS
 14 .debug_abbrev 00001531  00000000  00000000  00027bb5  2**0
                  CONTENTS, READONLY, DEBUGGING, OCTETS
 15 .debug_aranges 000008d8  00000000  00000000  000290e8  2**3
                  CONTENTS, READONLY, DEBUGGING, OCTETS
 16 .debug_rnglists 000006dd  00000000  00000000  000299c0  2**0
                  CONTENTS, READONLY, DEBUGGING, OCTETS
 17 .debug_macro  00019e90  00000000  00000000  0002a09d  2**0
                  CONTENTS, READONLY, DEBUGGING, OCTETS
 18 .debug_line   0000a14d  00000000  00000000  00043f2d  2**0
                  CONTENTS, READONLY, DEBUGGING, OCTETS
 19 .debug_str    000a051e  00000000  00000000  0004e07a  2**0
                  CONTENTS, READONLY, DEBUGGING, OCTETS
 20 .debug_frame  00001f8c  00000000  00000000  000ee598  2**2
                  CONTENTS, READONLY, DEBUGGING, OCTETS
 21 .debug_line_str 00000067  00000000  00000000  000f0524  2**0
                  CONTENTS, READONLY, DEBUGGING, OCTETS

Disassembly of section .text:

080000bc <__do_global_dtors_aux>:
 80000bc:	b510      	push	{r4, lr}
 80000be:	4c06      	ldr	r4, [pc, #24]	; (80000d8 <__do_global_dtors_aux+0x1c>)
 80000c0:	7823      	ldrb	r3, [r4, #0]
 80000c2:	2b00      	cmp	r3, #0
 80000c4:	d107      	bne.n	80000d6 <__do_global_dtors_aux+0x1a>
 80000c6:	4b05      	ldr	r3, [pc, #20]	; (80000dc <__do_global_dtors_aux+0x20>)
 80000c8:	2b00      	cmp	r3, #0
 80000ca:	d002      	beq.n	80000d2 <__do_global_dtors_aux+0x16>
 80000cc:	4804      	ldr	r0, [pc, #16]	; (80000e0 <__do_global_dtors_aux+0x24>)
 80000ce:	e000      	b.n	80000d2 <__do_global_dtors_aux+0x16>
 80000d0:	bf00      	nop
 80000d2:	2301      	movs	r3, #1
 80000d4:	7023      	strb	r3, [r4, #0]
 80000d6:	bd10      	pop	{r4, pc}
 80000d8:	20000030 	.word	0x20000030
 80000dc:	00000000 	.word	0x00000000
 80000e0:	08002694 	.word	0x08002694

080000e4 <frame_dummy>:
 80000e4:	4b04      	ldr	r3, [pc, #16]	; (80000f8 <frame_dummy+0x14>)
 80000e6:	b510      	push	{r4, lr}
 80000e8:	2b00      	cmp	r3, #0
 80000ea:	d003      	beq.n	80000f4 <frame_dummy+0x10>
 80000ec:	4903      	ldr	r1, [pc, #12]	; (80000fc <frame_dummy+0x18>)
 80000ee:	4804      	ldr	r0, [pc, #16]	; (8000100 <frame_dummy+0x1c>)
 80000f0:	e000      	b.n	80000f4 <frame_dummy+0x10>
 80000f2:	bf00      	nop
 80000f4:	bd10      	pop	{r4, pc}
 80000f6:	46c0      	nop			; (mov r8, r8)
 80000f8:	00000000 	.word	0x00000000
 80000fc:	20000034 	.word	0x20000034
 8000100:	08002694 	.word	0x08002694

08000104 <__udivsi3>:
 8000104:	2200      	movs	r2, #0
 8000106:	0843      	lsrs	r3, r0, #1
 8000108:	428b      	cmp	r3, r1
 800010a:	d374      	bcc.n	80001f6 <__udivsi3+0xf2>
 800010c:	0903      	lsrs	r3, r0, #4
 800010e:	428b      	cmp	r3, r1
 8000110:	d35f      	bcc.n	80001d2 <__udivsi3+0xce>
 8000112:	0a03      	lsrs	r3, r0, #8
 8000114:	428b      	cmp	r3, r1
 8000116:	d344      	bcc.n	80001a2 <__udivsi3+0x9e>
 8000118:	0b03      	lsrs	r3, r0, #12
 800011a:	428b      	cmp	r3, r1
 800011c:	d328      	bcc.n	8000170 <__udivsi3+0x6c>
 800011e:	0c03      	lsrs	r3, r0, #16
 8000120:	428b      	cmp	r3, r1
 8000122:	d30d      	bcc.n	8000140 <__udivsi3+0x3c>
 8000124:	22ff      	movs	r2, #255	; 0xff
 8000126:	0209      	lsls	r1, r1, #8
 8000128:	ba12      	rev	r2, r2
 800012a:	0c03      	lsrs	r3, r0, #16
 800012c:	428b      	cmp	r3, r1
 800012e:	d302      	bcc.n	8000136 <__udivsi3+0x32>
 8000130:	1212      	asrs	r2, r2, #8
 8000132:	0209      	lsls	r1, r1, #8
 8000134:	d065      	beq.n	8000202 <__udivsi3+0xfe>
 8000136:	0b03      	lsrs	r3, r0, #12
 8000138:	428b      	cmp	r3, r1
 800013a:	d319      	bcc.n	8000170 <__udivsi3+0x6c>
 800013c:	e000      	b.n	8000140 <__udivsi3+0x3c>
 800013e:	0a09      	lsrs	r1, r1, #8
 8000140:	0bc3      	lsrs	r3, r0, #15
 8000142:	428b      	cmp	r3, r1
 8000144:	d301      	bcc.n	800014a <__udivsi3+0x46>
 8000146:	03cb      	lsls	r3, r1, #15
 8000148:	1ac0      	subs	r0, r0, r3
 800014a:	4152      	adcs	r2, r2
 800014c:	0b83      	lsrs	r3, r0, #14
 800014e:	428b      	cmp	r3, r1
 8000150:	d301      	bcc.n	8000156 <__udivsi3+0x52>
 8000152:	038b      	lsls	r3, r1, #14
 8000154:	1ac0      	subs	r0, r0, r3
 8000156:	4152      	adcs	r2, r2
 8000158:	0b43      	lsrs	r3, r0, #13
 800015a:	428b      	cmp	r3, r1
 800015c:	d301      	bcc.n	8000162 <__udivsi3+0x5e>
 800015e:	034b      	lsls	r3, r1, #13
 8000160:	1ac0      	subs	r0, r0, r3
 8000162:	4152      	adcs	r2, r2
 8000164:	0b03      	lsrs	r3, r0, #12
 8000166:	428b      	cmp	r3, r1
 8000168:	d301      	bcc.n	800016e <__udivsi3+0x6a>
 800016a:	030b      	lsls	r3, r1, #12
 800016c:	1ac0      	subs	r0, r0, r3
 800016e:	4152      	adcs	r2, r2
 8000170:	0ac3      	lsrs	r3, r0, #11
 8000172:	428b      	cmp	r3, r1
 8000174:	d301      	bcc.n	800017a <__udivsi3+0x76>
 8000176:	02cb      	lsls	r3, r1, #11
 8000178:	1ac0      	subs	r0, r0, r3
 800017a:	4152      	adcs	r2, r2
 800017c:	0a83      	lsrs	r3, r0, #10
 800017e:	428b      	cmp	r3, r1
 8000180:	d301      	bcc.n	8000186 <__udivsi3+0x82>
 8000182:	028b      	lsls	r3, r1, #10
 8000184:	1ac0      	subs	r0, r0, r3
 8000186:	4152      	adcs	r2, r2
 8000188:	0a43      	lsrs	r3, r0, #9
 800018a:	428b      	cmp	r3, r1
 800018c:	d301      	bcc.n	8000192 <__udivsi3+0x8e>
 800018e:	024b      	lsls	r3, r1, #9
 8000190:	1ac0      	subs	r0, r0, r3
 8000192:	4152      	adcs	r2, r2
 8000194:	0a03      	lsrs	r3, r0, #8
 8000196:	428b      	cmp	r3, r1
 8000198:	d301      	bcc.n	800019e <__udivsi3+0x9a>
 800019a:	020b      	lsls	r3, r1, #8
 800019c:	1ac0      	subs	r0, r0, r3
 800019e:	4152      	adcs	r2, r2
 80001a0:	d2cd      	bcs.n	800013e <__udivsi3+0x3a>
 80001a2:	09c3      	lsrs	r3, r0, #7
 80001a4:	428b      	cmp	r3, r1
 80001a6:	d301      	bcc.n	80001ac <__udivsi3+0xa8>
 80001a8:	01cb      	lsls	r3, r1, #7
 80001aa:	1ac0      	subs	r0, r0, r3
 80001ac:	4152      	adcs	r2, r2
 80001ae:	0983      	lsrs	r3, r0, #6
 80001b0:	428b      	cmp	r3, r1
 80001b2:	d301      	bcc.n	80001b8 <__udivsi3+0xb4>
 80001b4:	018b      	lsls	r3, r1, #6
 80001b6:	1ac0      	subs	r0, r0, r3
 80001b8:	4152      	adcs	r2, r2
 80001ba:	0943      	lsrs	r3, r0, #5
 80001bc:	428b      	cmp	r3, r1
 80001be:	d301      	bcc.n	80001c4 <__udivsi3+0xc0>
 80001c0:	014b      	lsls	r3, r1, #5
 80001c2:	1ac0      	subs	r0, r0, r3
 80001c4:	4152      	adcs	r2, r2
 80001c6:	0903      	lsrs	r3, r0, #4
 80001c8:	428b      	cmp	r3, r1
 80001ca:	d301      	bcc.n	80001d0 <__udivsi3+0xcc>
 80001cc:	010b      	lsls	r3, r1, #4
 80001ce:	1ac0      	subs	r0, r0, r3
 80001d0:	4152      	adcs	r2, r2
 80001d2:	08c3      	lsrs	r3, r0, #3
 80001d4:	428b      	cmp	r3, r1
 80001d6:	d301      	bcc.n	80001dc <__udivsi3+0xd8>
 80001d8:	00cb      	lsls	r3, r1, #3
 80001da:	1ac0      	subs	r0, r0, r3
 80001dc:	4152      	adcs	r2, r2
 80001de:	0883      	lsrs	r3, r0, #2
 80001e0:	428b      	cmp	r3, r1
 80001e2:	d301      	bcc.n	80001e8 <__udivsi3+0xe4>
 80001e4:	008b      	lsls	r3, r1, #2
 80001e6:	1ac0      	subs	r0, r0, r3
 80001e8:	4152      	adcs	r2, r2
 80001ea:	0843      	lsrs	r3, r0, #1
 80001ec:	428b      	cmp	r3, r1
 80001ee:	d301      	bcc.n	80001f4 <__udivsi3+0xf0>
 80001f0:	004b      	lsls	r3, r1, #1
 80001f2:	1ac0      	subs	r0, r0, r3
 80001f4:	4152      	adcs	r2, r2
 80001f6:	1a41      	subs	r1, r0, r1
 80001f8:	d200      	bcs.n	80001fc <__udivsi3+0xf8>
 80001fa:	4601      	mov	r1, r0
 80001fc:	4152      	adcs	r2, r2
 80001fe:	4610      	mov	r0, r2
 8000200:	4770      	bx	lr
 8000202:	e7ff      	b.n	8000204 <__udivsi3+0x100>
 8000204:	b501      	push	{r0, lr}
 8000206:	2000      	movs	r0, #0
 8000208:	f000 f806 	bl	8000218 <__aeabi_idiv0>
 800020c:	bd02      	pop	{r1, pc}
 800020e:	46c0      	nop			; (mov r8, r8)

08000210 <__aeabi_uidivmod>:
 8000210:	2900      	cmp	r1, #0
 8000212:	d0f7      	beq.n	8000204 <__udivsi3+0x100>
 8000214:	e776      	b.n	8000104 <__udivsi3>
 8000216:	4770      	bx	lr

08000218 <__aeabi_idiv0>:
 8000218:	4770      	bx	lr
 800021a:	46c0      	nop			; (mov r8, r8)

0800021c <main>:
/**
  * @brief  The application entry point.
  * @retval int
  */
int main(void)
{
 800021c:	b580      	push	{r7, lr}
 800021e:	b082      	sub	sp, #8
 8000220:	af00      	add	r7, sp, #0
  /* USER CODE END 1 */

  /* MCU Configuration--------------------------------------------------------*/

  /* Reset of all peripherals, Initializes the Flash interface and the Systick. */
    HAL_Init();
 8000222:	f000 fdcd 	bl	8000dc0 <HAL_Init>
  /* USER CODE BEGIN Init */

  /* USER CODE END Init */

  /* Configure the system clock */
    SystemClock_Config();
 8000226:	f000 fae9 	bl	80007fc <SystemClock_Config>
  /* USER CODE BEGIN SysInit */

  /* USER CODE END SysInit */

  /* Initialize all configured peripherals */
    MX_GPIO_Init();
 800022a:	f000 fbc7 	bl	80009bc <MX_GPIO_Init>
    MX_TIM3_Init();
 800022e:	f000 fb31 	bl	8000894 <MX_TIM3_Init>
    MX_TIM6_Init();
 8000232:	f000 fb87 	bl	8000944 <MX_TIM6_Init>
  /* USER CODE BEGIN 2 */

    //Установить все линии в первоначальное положение светодиодов
    HAL_GPIO_WritePin(STP_SR_LED_nCLR_GPIO_Port, STP_SR_LED_nCLR_Pin,
 8000236:	2390      	movs	r3, #144	; 0x90
 8000238:	05db      	lsls	r3, r3, #23
 800023a:	2201      	movs	r2, #1
 800023c:	2140      	movs	r1, #64	; 0x40
 800023e:	0018      	movs	r0, r3
 8000240:	f001 f8b9 	bl	80013b6 <HAL_GPIO_WritePin>
    		GPIO_PIN_SET);
    HAL_GPIO_WritePin(STP_SR_LED_CLK_GPIO_Port, STP_SR_LED_CLK_Pin,
 8000244:	2390      	movs	r3, #144	; 0x90
 8000246:	05db      	lsls	r3, r3, #23
 8000248:	2200      	movs	r2, #0
 800024a:	2180      	movs	r1, #128	; 0x80
 800024c:	0018      	movs	r0, r3
 800024e:	f001 f8b2 	bl	80013b6 <HAL_GPIO_WritePin>
    		GPIO_PIN_RESET);
    //Установить все линии в первоначальное положение прозвонки и чтения
    HAL_GPIO_WritePin(LINE_CALL_SR_CLK_GPIO_Port, LINE_CALL_SR_CLK_Pin,
 8000252:	4b5f      	ldr	r3, [pc, #380]	; (80003d0 <main+0x1b4>)
 8000254:	2200      	movs	r2, #0
 8000256:	2140      	movs	r1, #64	; 0x40
 8000258:	0018      	movs	r0, r3
 800025a:	f001 f8ac 	bl	80013b6 <HAL_GPIO_WritePin>
    		GPIO_PIN_RESET);
    HAL_GPIO_WritePin(LINE_RESPONSE_SR_CLK_GPIO_Port, LINE_RESPONSE_SR_CLK_Pin,
 800025e:	4b5c      	ldr	r3, [pc, #368]	; (80003d0 <main+0x1b4>)
 8000260:	2200      	movs	r2, #0
 8000262:	2108      	movs	r1, #8
 8000264:	0018      	movs	r0, r3
 8000266:	f001 f8a6 	bl	80013b6 <HAL_GPIO_WritePin>
    		GPIO_PIN_RESET);
    HAL_GPIO_WritePin(LINE_CALL_SR_nCLR_GPIO_Port, LINE_CALL_SR_nCLR_Pin,
 800026a:	4b59      	ldr	r3, [pc, #356]	; (80003d0 <main+0x1b4>)
 800026c:	2201      	movs	r2, #1
 800026e:	2120      	movs	r1, #32
 8000270:	0018      	movs	r0, r3
 8000272:	f001 f8a0 	bl	80013b6 <HAL_GPIO_WritePin>
    		GPIO_PIN_SET);
    HAL_GPIO_WritePin(LINE_RESPONSE_SR_SHnLD_GPIO_Port, LINE_RESPONSE_SR_SHnLD_Pin,
 8000276:	2380      	movs	r3, #128	; 0x80
 8000278:	0219      	lsls	r1, r3, #8
 800027a:	2390      	movs	r3, #144	; 0x90
 800027c:	05db      	lsls	r3, r3, #23
 800027e:	2201      	movs	r2, #1
 8000280:	0018      	movs	r0, r3
 8000282:	f001 f898 	bl	80013b6 <HAL_GPIO_WritePin>
    		GPIO_PIN_SET);

    clearLEDSR();
 8000286:	f000 fc23 	bl	8000ad0 <clearLEDSR>
    clearCallSR();
 800028a:	f000 fca5 	bl	8000bd8 <clearCallSR>
    // Запустить таймер
    if (USE_TIMER) {
        HAL_TIM_Base_Start_IT(&htim3);
 800028e:	4b51      	ldr	r3, [pc, #324]	; (80003d4 <main+0x1b8>)
 8000290:	0018      	movs	r0, r3
 8000292:	f001 fdef 	bl	8001e74 <HAL_TIM_Base_Start_IT>
        HAL_TIM_Base_Start_IT(&htim6);
 8000296:	4b50      	ldr	r3, [pc, #320]	; (80003d8 <main+0x1bc>)
 8000298:	0018      	movs	r0, r3
 800029a:	f001 fdeb 	bl	8001e74 <HAL_TIM_Base_Start_IT>
    }

    /*TIME SETTINGS*/

    g_u32frequencyTim3 = HAL_RCC_GetPCLK1Freq();
 800029e:	f001 fd83 	bl	8001da8 <HAL_RCC_GetPCLK1Freq>
 80002a2:	0002      	movs	r2, r0
 80002a4:	4b4d      	ldr	r3, [pc, #308]	; (80003dc <main+0x1c0>)
 80002a6:	601a      	str	r2, [r3, #0]

    g_u32Prescaler = htim3.Init.Prescaler;
 80002a8:	4b4a      	ldr	r3, [pc, #296]	; (80003d4 <main+0x1b8>)
 80002aa:	685a      	ldr	r2, [r3, #4]
 80002ac:	4b4c      	ldr	r3, [pc, #304]	; (80003e0 <main+0x1c4>)
 80002ae:	601a      	str	r2, [r3, #0]
    g_u32TimePeriod = ((g_u32frequencyTim3 * TIME_BLINKING_LED_MS) /
 80002b0:	4b4a      	ldr	r3, [pc, #296]	; (80003dc <main+0x1c0>)
 80002b2:	681b      	ldr	r3, [r3, #0]
 80002b4:	2264      	movs	r2, #100	; 0x64
 80002b6:	435a      	muls	r2, r3
 80002b8:	0010      	movs	r0, r2
    		((g_u32Prescaler + 1) * 1000)) - 1;
 80002ba:	4b49      	ldr	r3, [pc, #292]	; (80003e0 <main+0x1c4>)
 80002bc:	681b      	ldr	r3, [r3, #0]
 80002be:	1c5a      	adds	r2, r3, #1
 80002c0:	0013      	movs	r3, r2
 80002c2:	015b      	lsls	r3, r3, #5
 80002c4:	1a9b      	subs	r3, r3, r2
 80002c6:	009b      	lsls	r3, r3, #2
 80002c8:	189b      	adds	r3, r3, r2
 80002ca:	00db      	lsls	r3, r3, #3
    g_u32TimePeriod = ((g_u32frequencyTim3 * TIME_BLINKING_LED_MS) /
 80002cc:	0019      	movs	r1, r3
 80002ce:	f7ff ff19 	bl	8000104 <__udivsi3>
 80002d2:	0003      	movs	r3, r0
    		((g_u32Prescaler + 1) * 1000)) - 1;
 80002d4:	1e5a      	subs	r2, r3, #1
    g_u32TimePeriod = ((g_u32frequencyTim3 * TIME_BLINKING_LED_MS) /
 80002d6:	4b43      	ldr	r3, [pc, #268]	; (80003e4 <main+0x1c8>)
 80002d8:	601a      	str	r2, [r3, #0]
    __HAL_TIM_SET_AUTORELOAD(&htim3, g_u32TimePeriod);
 80002da:	4b3e      	ldr	r3, [pc, #248]	; (80003d4 <main+0x1b8>)
 80002dc:	681b      	ldr	r3, [r3, #0]
 80002de:	4a41      	ldr	r2, [pc, #260]	; (80003e4 <main+0x1c8>)
 80002e0:	6812      	ldr	r2, [r2, #0]
 80002e2:	62da      	str	r2, [r3, #44]	; 0x2c
 80002e4:	4b3f      	ldr	r3, [pc, #252]	; (80003e4 <main+0x1c8>)
 80002e6:	681a      	ldr	r2, [r3, #0]
 80002e8:	4b3a      	ldr	r3, [pc, #232]	; (80003d4 <main+0x1b8>)
 80002ea:	60da      	str	r2, [r3, #12]
    /* USER CODE BEGIN 3 */

    		/*ringing of lines*/
    		/*хочу чтобы 01111111 прошёл поочерёдно по 8 линиям и
    		 	 	 * результат записался в двумерный массив*/
        if (g_u8NeedToRingLine) {
 80002ec:	4b3e      	ldr	r3, [pc, #248]	; (80003e8 <main+0x1cc>)
 80002ee:	781b      	ldrb	r3, [r3, #0]
 80002f0:	2b00      	cmp	r3, #0
 80002f2:	d100      	bne.n	80002f6 <main+0xda>
 80002f4:	e09d      	b.n	8000432 <main+0x216>

            clearCallSR();
 80002f6:	f000 fc6f 	bl	8000bd8 <clearCallSR>

        	HAL_GPIO_WritePin(LINE_CALL_SR_DATA_GPIO_Port, LINE_CALL_SR_DATA_Pin,
 80002fa:	4b35      	ldr	r3, [pc, #212]	; (80003d0 <main+0x1b4>)
 80002fc:	2201      	movs	r2, #1
 80002fe:	2180      	movs	r1, #128	; 0x80
 8000300:	0018      	movs	r0, r3
 8000302:	f001 f858 	bl	80013b6 <HAL_GPIO_WritePin>
        			GPIO_PIN_SET);

            for (uint8_t i = 0; i < NUMBER_OF_LINES - 1; i++) {
 8000306:	1dfb      	adds	r3, r7, #7
 8000308:	2200      	movs	r2, #0
 800030a:	701a      	strb	r2, [r3, #0]
 800030c:	e010      	b.n	8000330 <main+0x114>
            	HAL_GPIO_WritePin(LINE_CALL_SR_CLK_GPIO_Port, LINE_CALL_SR_CLK_Pin,
 800030e:	4b30      	ldr	r3, [pc, #192]	; (80003d0 <main+0x1b4>)
 8000310:	2201      	movs	r2, #1
 8000312:	2140      	movs	r1, #64	; 0x40
 8000314:	0018      	movs	r0, r3
 8000316:	f001 f84e 	bl	80013b6 <HAL_GPIO_WritePin>
            			GPIO_PIN_SET);
            	HAL_GPIO_WritePin(LINE_CALL_SR_CLK_GPIO_Port, LINE_CALL_SR_CLK_Pin,
 800031a:	4b2d      	ldr	r3, [pc, #180]	; (80003d0 <main+0x1b4>)
 800031c:	2200      	movs	r2, #0
 800031e:	2140      	movs	r1, #64	; 0x40
 8000320:	0018      	movs	r0, r3
 8000322:	f001 f848 	bl	80013b6 <HAL_GPIO_WritePin>
            for (uint8_t i = 0; i < NUMBER_OF_LINES - 1; i++) {
 8000326:	1dfb      	adds	r3, r7, #7
 8000328:	781a      	ldrb	r2, [r3, #0]
 800032a:	1dfb      	adds	r3, r7, #7
 800032c:	3201      	adds	r2, #1
 800032e:	701a      	strb	r2, [r3, #0]
 8000330:	1dfb      	adds	r3, r7, #7
 8000332:	781b      	ldrb	r3, [r3, #0]
 8000334:	2b06      	cmp	r3, #6
 8000336:	d9ea      	bls.n	800030e <main+0xf2>
            			GPIO_PIN_RESET);
            }

	        HAL_GPIO_WritePin(LINE_CALL_SR_DATA_GPIO_Port, LINE_CALL_SR_DATA_Pin,
 8000338:	4b25      	ldr	r3, [pc, #148]	; (80003d0 <main+0x1b4>)
 800033a:	2200      	movs	r2, #0
 800033c:	2180      	movs	r1, #128	; 0x80
 800033e:	0018      	movs	r0, r3
 8000340:	f001 f839 	bl	80013b6 <HAL_GPIO_WritePin>
	                GPIO_PIN_RESET);

        	HAL_Delay(50); /*переместить часть кода в ф-цию прерываний*/
 8000344:	2032      	movs	r0, #50	; 0x32
 8000346:	f000 fd9f 	bl	8000e88 <HAL_Delay>

            /*сюда флаг для таймера?*/
	        for (uint8_t u8CallColumn = 0; u8CallColumn < NUMBER_OF_LINES;
 800034a:	1dbb      	adds	r3, r7, #6
 800034c:	2200      	movs	r2, #0
 800034e:	701a      	strb	r2, [r3, #0]
 8000350:	e06b      	b.n	800042a <main+0x20e>
	        		u8CallColumn++) {

		        HAL_GPIO_WritePin(LINE_CALL_SR_CLK_GPIO_Port,
 8000352:	4b1f      	ldr	r3, [pc, #124]	; (80003d0 <main+0x1b4>)
 8000354:	2201      	movs	r2, #1
 8000356:	2140      	movs	r1, #64	; 0x40
 8000358:	0018      	movs	r0, r3
 800035a:	f001 f82c 	bl	80013b6 <HAL_GPIO_WritePin>
		        		LINE_CALL_SR_CLK_Pin, GPIO_PIN_SET);
		        HAL_GPIO_WritePin(LINE_CALL_SR_CLK_GPIO_Port,
 800035e:	4b1c      	ldr	r3, [pc, #112]	; (80003d0 <main+0x1b4>)
 8000360:	2200      	movs	r2, #0
 8000362:	2140      	movs	r1, #64	; 0x40
 8000364:	0018      	movs	r0, r3
 8000366:	f001 f826 	bl	80013b6 <HAL_GPIO_WritePin>
		        		LINE_CALL_SR_CLK_Pin, GPIO_PIN_RESET);

		        HAL_GPIO_WritePin(LINE_RESPONSE_SR_SHnLD_GPIO_Port,
 800036a:	2380      	movs	r3, #128	; 0x80
 800036c:	0219      	lsls	r1, r3, #8
 800036e:	2390      	movs	r3, #144	; 0x90
 8000370:	05db      	lsls	r3, r3, #23
 8000372:	2200      	movs	r2, #0
 8000374:	0018      	movs	r0, r3
 8000376:	f001 f81e 	bl	80013b6 <HAL_GPIO_WritePin>
		        		LINE_RESPONSE_SR_SHnLD_Pin, GPIO_PIN_RESET);
		        HAL_GPIO_WritePin(LINE_RESPONSE_SR_SHnLD_GPIO_Port,
 800037a:	2380      	movs	r3, #128	; 0x80
 800037c:	0219      	lsls	r1, r3, #8
 800037e:	2390      	movs	r3, #144	; 0x90
 8000380:	05db      	lsls	r3, r3, #23
 8000382:	2201      	movs	r2, #1
 8000384:	0018      	movs	r0, r3
 8000386:	f001 f816 	bl	80013b6 <HAL_GPIO_WritePin>
		        		LINE_RESPONSE_SR_SHnLD_Pin, GPIO_PIN_SET);

		        for (uint8_t u8RespString = 0; u8RespString < NUMBER_OF_LINES;
 800038a:	1d7b      	adds	r3, r7, #5
 800038c:	2200      	movs	r2, #0
 800038e:	701a      	strb	r2, [r3, #0]
 8000390:	e03c      	b.n	800040c <main+0x1f0>
		        		u8RespString++) {

		            HAL_GPIO_WritePin(LINE_RESPONSE_SR_CLK_GPIO_Port,
 8000392:	4b0f      	ldr	r3, [pc, #60]	; (80003d0 <main+0x1b4>)
 8000394:	2201      	movs	r2, #1
 8000396:	2108      	movs	r1, #8
 8000398:	0018      	movs	r0, r3
 800039a:	f001 f80c 	bl	80013b6 <HAL_GPIO_WritePin>
		            		LINE_RESPONSE_SR_CLK_Pin, GPIO_PIN_SET);
			        HAL_GPIO_WritePin(LINE_RESPONSE_SR_CLK_GPIO_Port,
 800039e:	4b0c      	ldr	r3, [pc, #48]	; (80003d0 <main+0x1b4>)
 80003a0:	2200      	movs	r2, #0
 80003a2:	2108      	movs	r1, #8
 80003a4:	0018      	movs	r0, r3
 80003a6:	f001 f806 	bl	80013b6 <HAL_GPIO_WritePin>
			        		LINE_RESPONSE_SR_CLK_Pin, GPIO_PIN_RESET);

			        if (HAL_GPIO_ReadPin(LINE_RESPONSE_SR_DATA_GPIO_Port,
 80003aa:	4b09      	ldr	r3, [pc, #36]	; (80003d0 <main+0x1b4>)
 80003ac:	2110      	movs	r1, #16
 80003ae:	0018      	movs	r0, r3
 80003b0:	f000 ffe4 	bl	800137c <HAL_GPIO_ReadPin>
 80003b4:	0003      	movs	r3, r0
 80003b6:	2b01      	cmp	r3, #1
 80003b8:	d11a      	bne.n	80003f0 <main+0x1d4>
			        		LINE_RESPONSE_SR_DATA_Pin) == GPIO_PIN_SET) {
				        g_au8ResponsesData[u8CallColumn][u8RespString] = 1;
 80003ba:	1dbb      	adds	r3, r7, #6
 80003bc:	781a      	ldrb	r2, [r3, #0]
 80003be:	1d7b      	adds	r3, r7, #5
 80003c0:	781b      	ldrb	r3, [r3, #0]
 80003c2:	490a      	ldr	r1, [pc, #40]	; (80003ec <main+0x1d0>)
 80003c4:	00d2      	lsls	r2, r2, #3
 80003c6:	188a      	adds	r2, r1, r2
 80003c8:	2101      	movs	r1, #1
 80003ca:	54d1      	strb	r1, [r2, r3]
 80003cc:	e019      	b.n	8000402 <main+0x1e6>
 80003ce:	46c0      	nop			; (mov r8, r8)
 80003d0:	48000400 	.word	0x48000400
 80003d4:	2000004c 	.word	0x2000004c
 80003d8:	20000094 	.word	0x20000094
 80003dc:	200000f0 	.word	0x200000f0
 80003e0:	200000ec 	.word	0x200000ec
 80003e4:	200000f4 	.word	0x200000f4
 80003e8:	20000003 	.word	0x20000003
 80003ec:	200000f8 	.word	0x200000f8
			        }
			        else {
				        g_au8ResponsesData[u8CallColumn][u8RespString] = 0;
 80003f0:	1dbb      	adds	r3, r7, #6
 80003f2:	781a      	ldrb	r2, [r3, #0]
 80003f4:	1d7b      	adds	r3, r7, #5
 80003f6:	781b      	ldrb	r3, [r3, #0]
 80003f8:	49da      	ldr	r1, [pc, #872]	; (8000764 <main+0x548>)
 80003fa:	00d2      	lsls	r2, r2, #3
 80003fc:	188a      	adds	r2, r1, r2
 80003fe:	2100      	movs	r1, #0
 8000400:	54d1      	strb	r1, [r2, r3]
		        		u8RespString++) {
 8000402:	1d7b      	adds	r3, r7, #5
 8000404:	781a      	ldrb	r2, [r3, #0]
 8000406:	1d7b      	adds	r3, r7, #5
 8000408:	3201      	adds	r2, #1
 800040a:	701a      	strb	r2, [r3, #0]
		        for (uint8_t u8RespString = 0; u8RespString < NUMBER_OF_LINES;
 800040c:	1d7b      	adds	r3, r7, #5
 800040e:	781b      	ldrb	r3, [r3, #0]
 8000410:	2b07      	cmp	r3, #7
 8000412:	d9be      	bls.n	8000392 <main+0x176>
			        }

		        }

	        	HAL_GPIO_WritePin(LINE_CALL_SR_DATA_GPIO_Port,
 8000414:	4bd4      	ldr	r3, [pc, #848]	; (8000768 <main+0x54c>)
 8000416:	2201      	movs	r2, #1
 8000418:	2180      	movs	r1, #128	; 0x80
 800041a:	0018      	movs	r0, r3
 800041c:	f000 ffcb 	bl	80013b6 <HAL_GPIO_WritePin>
	        		u8CallColumn++) {
 8000420:	1dbb      	adds	r3, r7, #6
 8000422:	781a      	ldrb	r2, [r3, #0]
 8000424:	1dbb      	adds	r3, r7, #6
 8000426:	3201      	adds	r2, #1
 8000428:	701a      	strb	r2, [r3, #0]
	        for (uint8_t u8CallColumn = 0; u8CallColumn < NUMBER_OF_LINES;
 800042a:	1dbb      	adds	r3, r7, #6
 800042c:	781b      	ldrb	r3, [r3, #0]
 800042e:	2b07      	cmp	r3, #7
 8000430:	d98f      	bls.n	8000352 <main+0x136>
        /* data processing */
        //хочу чтобы двумерный массив обработался и
        //на основе обработки сгенерировались данные для отображения
        //сформировали что отобразить

        if (g_u8StepNumber == 0) {
 8000432:	4bce      	ldr	r3, [pc, #824]	; (800076c <main+0x550>)
 8000434:	781b      	ldrb	r3, [r3, #0]
 8000436:	2b00      	cmp	r3, #0
 8000438:	d000      	beq.n	800043c <main+0x220>
 800043a:	e09b      	b.n	8000574 <main+0x358>

            if (g_u8ActiveRowColor == GREEN_COLOR) {
 800043c:	4bcc      	ldr	r3, [pc, #816]	; (8000770 <main+0x554>)
 800043e:	781b      	ldrb	r3, [r3, #0]
 8000440:	2b01      	cmp	r3, #1
 8000442:	d129      	bne.n	8000498 <main+0x27c>
                if ((g_u8ActiveLed >= 0) && (g_u8ActiveLed < NUMBER_OF_LEDS / 2)) {
 8000444:	4bcb      	ldr	r3, [pc, #812]	; (8000774 <main+0x558>)
 8000446:	781b      	ldrb	r3, [r3, #0]
 8000448:	2b07      	cmp	r3, #7
 800044a:	d80d      	bhi.n	8000468 <main+0x24c>
		            g_u8LedCallGreenData = (LED_ON << g_au8GreenCalls[g_u8ActiveRow]);
 800044c:	4bca      	ldr	r3, [pc, #808]	; (8000778 <main+0x55c>)
 800044e:	781b      	ldrb	r3, [r3, #0]
 8000450:	001a      	movs	r2, r3
 8000452:	4bca      	ldr	r3, [pc, #808]	; (800077c <main+0x560>)
 8000454:	5c9b      	ldrb	r3, [r3, r2]
 8000456:	001a      	movs	r2, r3
 8000458:	2301      	movs	r3, #1
 800045a:	4093      	lsls	r3, r2
 800045c:	b2da      	uxtb	r2, r3
 800045e:	4bc8      	ldr	r3, [pc, #800]	; (8000780 <main+0x564>)
 8000460:	701a      	strb	r2, [r3, #0]
                    g_u8LedCallRedData = LED_OFF;
 8000462:	4bc8      	ldr	r3, [pc, #800]	; (8000784 <main+0x568>)
 8000464:	2200      	movs	r2, #0
 8000466:	701a      	strb	r2, [r3, #0]
		        }
                if ((g_u8ActiveLed >= NUMBER_OF_LEDS / 2) &&
 8000468:	4bc2      	ldr	r3, [pc, #776]	; (8000774 <main+0x558>)
 800046a:	781b      	ldrb	r3, [r3, #0]
 800046c:	2b07      	cmp	r3, #7
 800046e:	d913      	bls.n	8000498 <main+0x27c>
                		(g_u8ActiveLed < NUMBER_OF_LEDS)) {
 8000470:	4bc0      	ldr	r3, [pc, #768]	; (8000774 <main+0x558>)
 8000472:	781b      	ldrb	r3, [r3, #0]
                if ((g_u8ActiveLed >= NUMBER_OF_LEDS / 2) &&
 8000474:	2b0f      	cmp	r3, #15
 8000476:	d80f      	bhi.n	8000498 <main+0x27c>
                	g_u8LedRespGreenData = (LED_ON <<
                			g_au8GreenResponses[NUMBER_OF_LINES - g_u8ActiveRow - 1]);
 8000478:	4bbf      	ldr	r3, [pc, #764]	; (8000778 <main+0x55c>)
 800047a:	781b      	ldrb	r3, [r3, #0]
 800047c:	001a      	movs	r2, r3
 800047e:	2307      	movs	r3, #7
 8000480:	1a9b      	subs	r3, r3, r2
 8000482:	4ac1      	ldr	r2, [pc, #772]	; (8000788 <main+0x56c>)
 8000484:	5cd3      	ldrb	r3, [r2, r3]
 8000486:	001a      	movs	r2, r3
                	g_u8LedRespGreenData = (LED_ON <<
 8000488:	2301      	movs	r3, #1
 800048a:	4093      	lsls	r3, r2
 800048c:	b2da      	uxtb	r2, r3
 800048e:	4bbf      	ldr	r3, [pc, #764]	; (800078c <main+0x570>)
 8000490:	701a      	strb	r2, [r3, #0]
                	g_u8LedRespRedData = LED_OFF;
 8000492:	4bbf      	ldr	r3, [pc, #764]	; (8000790 <main+0x574>)
 8000494:	2200      	movs	r2, #0
 8000496:	701a      	strb	r2, [r3, #0]
                }
            }

            if (g_u8ActiveRowColor == RED_COLOR) {
 8000498:	4bb5      	ldr	r3, [pc, #724]	; (8000770 <main+0x554>)
 800049a:	781b      	ldrb	r3, [r3, #0]
 800049c:	2b02      	cmp	r3, #2
 800049e:	d129      	bne.n	80004f4 <main+0x2d8>
            	if ((g_u8ActiveLed >= 0) && (g_u8ActiveLed < NUMBER_OF_LEDS / 2)) {
 80004a0:	4bb4      	ldr	r3, [pc, #720]	; (8000774 <main+0x558>)
 80004a2:	781b      	ldrb	r3, [r3, #0]
 80004a4:	2b07      	cmp	r3, #7
 80004a6:	d80d      	bhi.n	80004c4 <main+0x2a8>
            		g_u8LedCallRedData = LED_ON << g_au8RedCalls[g_u8ActiveRow];
 80004a8:	4bb3      	ldr	r3, [pc, #716]	; (8000778 <main+0x55c>)
 80004aa:	781b      	ldrb	r3, [r3, #0]
 80004ac:	001a      	movs	r2, r3
 80004ae:	4bb9      	ldr	r3, [pc, #740]	; (8000794 <main+0x578>)
 80004b0:	5c9b      	ldrb	r3, [r3, r2]
 80004b2:	001a      	movs	r2, r3
 80004b4:	2301      	movs	r3, #1
 80004b6:	4093      	lsls	r3, r2
 80004b8:	b2da      	uxtb	r2, r3
 80004ba:	4bb2      	ldr	r3, [pc, #712]	; (8000784 <main+0x568>)
 80004bc:	701a      	strb	r2, [r3, #0]
            		g_u8LedCallGreenData = LED_OFF;
 80004be:	4bb0      	ldr	r3, [pc, #704]	; (8000780 <main+0x564>)
 80004c0:	2200      	movs	r2, #0
 80004c2:	701a      	strb	r2, [r3, #0]
            	}
            	if ((g_u8ActiveLed >= NUMBER_OF_LEDS / 2) &&
 80004c4:	4bab      	ldr	r3, [pc, #684]	; (8000774 <main+0x558>)
 80004c6:	781b      	ldrb	r3, [r3, #0]
 80004c8:	2b07      	cmp	r3, #7
 80004ca:	d913      	bls.n	80004f4 <main+0x2d8>
            			(g_u8ActiveLed < NUMBER_OF_LEDS)) {
 80004cc:	4ba9      	ldr	r3, [pc, #676]	; (8000774 <main+0x558>)
 80004ce:	781b      	ldrb	r3, [r3, #0]
            	if ((g_u8ActiveLed >= NUMBER_OF_LEDS / 2) &&
 80004d0:	2b0f      	cmp	r3, #15
 80004d2:	d80f      	bhi.n	80004f4 <main+0x2d8>
            		g_u8LedRespRedData = LED_ON <<
            				g_au8RedResponses[NUMBER_OF_LINES - g_u8ActiveRow - 1];
 80004d4:	4ba8      	ldr	r3, [pc, #672]	; (8000778 <main+0x55c>)
 80004d6:	781b      	ldrb	r3, [r3, #0]
 80004d8:	001a      	movs	r2, r3
 80004da:	2307      	movs	r3, #7
 80004dc:	1a9b      	subs	r3, r3, r2
 80004de:	4aae      	ldr	r2, [pc, #696]	; (8000798 <main+0x57c>)
 80004e0:	5cd3      	ldrb	r3, [r2, r3]
 80004e2:	001a      	movs	r2, r3
            		g_u8LedRespRedData = LED_ON <<
 80004e4:	2301      	movs	r3, #1
 80004e6:	4093      	lsls	r3, r2
 80004e8:	b2da      	uxtb	r2, r3
 80004ea:	4ba9      	ldr	r3, [pc, #676]	; (8000790 <main+0x574>)
 80004ec:	701a      	strb	r2, [r3, #0]
            		g_u8LedRespGreenData = LED_OFF;
 80004ee:	4ba7      	ldr	r3, [pc, #668]	; (800078c <main+0x570>)
 80004f0:	2200      	movs	r2, #0
 80004f2:	701a      	strb	r2, [r3, #0]
            	}
            }

            if (g_u8ActiveRowColor == YELLOW_COLOR) {
 80004f4:	4b9e      	ldr	r3, [pc, #632]	; (8000770 <main+0x554>)
 80004f6:	781b      	ldrb	r3, [r3, #0]
 80004f8:	2b03      	cmp	r3, #3
 80004fa:	d13b      	bne.n	8000574 <main+0x358>
            	if ((g_u8ActiveLed >= 0) && (g_u8ActiveLed < NUMBER_OF_LEDS / 2)) {
 80004fc:	4b9d      	ldr	r3, [pc, #628]	; (8000774 <main+0x558>)
 80004fe:	781b      	ldrb	r3, [r3, #0]
 8000500:	2b07      	cmp	r3, #7
 8000502:	d815      	bhi.n	8000530 <main+0x314>
            		g_u8LedCallGreenData = LED_ON << g_au8GreenCalls[g_u8ActiveRow];
 8000504:	4b9c      	ldr	r3, [pc, #624]	; (8000778 <main+0x55c>)
 8000506:	781b      	ldrb	r3, [r3, #0]
 8000508:	001a      	movs	r2, r3
 800050a:	4b9c      	ldr	r3, [pc, #624]	; (800077c <main+0x560>)
 800050c:	5c9b      	ldrb	r3, [r3, r2]
 800050e:	001a      	movs	r2, r3
 8000510:	2301      	movs	r3, #1
 8000512:	4093      	lsls	r3, r2
 8000514:	b2da      	uxtb	r2, r3
 8000516:	4b9a      	ldr	r3, [pc, #616]	; (8000780 <main+0x564>)
 8000518:	701a      	strb	r2, [r3, #0]
            		g_u8LedCallRedData = LED_ON << g_au8RedCalls[g_u8ActiveRow];
 800051a:	4b97      	ldr	r3, [pc, #604]	; (8000778 <main+0x55c>)
 800051c:	781b      	ldrb	r3, [r3, #0]
 800051e:	001a      	movs	r2, r3
 8000520:	4b9c      	ldr	r3, [pc, #624]	; (8000794 <main+0x578>)
 8000522:	5c9b      	ldrb	r3, [r3, r2]
 8000524:	001a      	movs	r2, r3
 8000526:	2301      	movs	r3, #1
 8000528:	4093      	lsls	r3, r2
 800052a:	b2da      	uxtb	r2, r3
 800052c:	4b95      	ldr	r3, [pc, #596]	; (8000784 <main+0x568>)
 800052e:	701a      	strb	r2, [r3, #0]
            	}
            	if ((g_u8ActiveLed >= NUMBER_OF_LEDS / 2) &&
 8000530:	4b90      	ldr	r3, [pc, #576]	; (8000774 <main+0x558>)
 8000532:	781b      	ldrb	r3, [r3, #0]
 8000534:	2b07      	cmp	r3, #7
 8000536:	d91d      	bls.n	8000574 <main+0x358>
            			(g_u8ActiveLed < NUMBER_OF_LEDS)) {
 8000538:	4b8e      	ldr	r3, [pc, #568]	; (8000774 <main+0x558>)
 800053a:	781b      	ldrb	r3, [r3, #0]
            	if ((g_u8ActiveLed >= NUMBER_OF_LEDS / 2) &&
 800053c:	2b0f      	cmp	r3, #15
 800053e:	d819      	bhi.n	8000574 <main+0x358>
            		g_u8LedRespGreenData = LED_ON <<
            				g_au8GreenResponses[NUMBER_OF_LINES - g_u8ActiveRow - 1];
 8000540:	4b8d      	ldr	r3, [pc, #564]	; (8000778 <main+0x55c>)
 8000542:	781b      	ldrb	r3, [r3, #0]
 8000544:	001a      	movs	r2, r3
 8000546:	2307      	movs	r3, #7
 8000548:	1a9b      	subs	r3, r3, r2
 800054a:	4a8f      	ldr	r2, [pc, #572]	; (8000788 <main+0x56c>)
 800054c:	5cd3      	ldrb	r3, [r2, r3]
 800054e:	001a      	movs	r2, r3
            		g_u8LedRespGreenData = LED_ON <<
 8000550:	2301      	movs	r3, #1
 8000552:	4093      	lsls	r3, r2
 8000554:	b2da      	uxtb	r2, r3
 8000556:	4b8d      	ldr	r3, [pc, #564]	; (800078c <main+0x570>)
 8000558:	701a      	strb	r2, [r3, #0]
            		g_u8LedRespRedData = LED_ON <<
            				g_au8RedResponses[NUMBER_OF_LINES - g_u8ActiveRow - 1];
 800055a:	4b87      	ldr	r3, [pc, #540]	; (8000778 <main+0x55c>)
 800055c:	781b      	ldrb	r3, [r3, #0]
 800055e:	001a      	movs	r2, r3
 8000560:	2307      	movs	r3, #7
 8000562:	1a9b      	subs	r3, r3, r2
 8000564:	4a8c      	ldr	r2, [pc, #560]	; (8000798 <main+0x57c>)
 8000566:	5cd3      	ldrb	r3, [r2, r3]
 8000568:	001a      	movs	r2, r3
            		g_u8LedRespRedData = LED_ON <<
 800056a:	2301      	movs	r3, #1
 800056c:	4093      	lsls	r3, r2
 800056e:	b2da      	uxtb	r2, r3
 8000570:	4b87      	ldr	r3, [pc, #540]	; (8000790 <main+0x574>)
 8000572:	701a      	strb	r2, [r3, #0]
            	}
            }
        }

        if (g_u8StepNumber != 0) {
 8000574:	4b7d      	ldr	r3, [pc, #500]	; (800076c <main+0x550>)
 8000576:	781b      	ldrb	r3, [r3, #0]
 8000578:	2b00      	cmp	r3, #0
 800057a:	d05b      	beq.n	8000634 <main+0x418>
        	[NUMBER_OF_LINES - g_u8StepNumber]);*/

	 /* g_u8BinaryRed = g_u8BinaryRed | (SR_DATA_bm << g_au8RedCalls
        	[NUMBER_OF_LINES - g_u8StepNumber]);*/

        	if (g_u8ActiveRowColor == GREEN_COLOR) {
 800057c:	4b7c      	ldr	r3, [pc, #496]	; (8000770 <main+0x554>)
 800057e:	781b      	ldrb	r3, [r3, #0]
 8000580:	2b01      	cmp	r3, #1
 8000582:	d129      	bne.n	80005d8 <main+0x3bc>

        		g_u8LedCallGreenData = (LED_ON << g_au8GreenCalls[g_u8ActiveRow]) |
 8000584:	4b7c      	ldr	r3, [pc, #496]	; (8000778 <main+0x55c>)
 8000586:	781b      	ldrb	r3, [r3, #0]
 8000588:	001a      	movs	r2, r3
 800058a:	4b7c      	ldr	r3, [pc, #496]	; (800077c <main+0x560>)
 800058c:	5c9b      	ldrb	r3, [r3, r2]
 800058e:	001a      	movs	r2, r3
 8000590:	2301      	movs	r3, #1
 8000592:	4093      	lsls	r3, r2
 8000594:	b25a      	sxtb	r2, r3
 8000596:	4b81      	ldr	r3, [pc, #516]	; (800079c <main+0x580>)
 8000598:	781b      	ldrb	r3, [r3, #0]
 800059a:	b25b      	sxtb	r3, r3
 800059c:	4313      	orrs	r3, r2
 800059e:	b25b      	sxtb	r3, r3
 80005a0:	b2da      	uxtb	r2, r3
 80005a2:	4b77      	ldr	r3, [pc, #476]	; (8000780 <main+0x564>)
 80005a4:	701a      	strb	r2, [r3, #0]
        				(g_u8ColumnGreen);
        		g_u8LedRespGreenData = (LED_ON << g_au8GreenResponses
        				[NUMBER_OF_LINES - g_u8ActiveRow]) | (g_u8ColumnGreen);
 80005a6:	4b74      	ldr	r3, [pc, #464]	; (8000778 <main+0x55c>)
 80005a8:	781b      	ldrb	r3, [r3, #0]
 80005aa:	001a      	movs	r2, r3
 80005ac:	2308      	movs	r3, #8
 80005ae:	1a9b      	subs	r3, r3, r2
 80005b0:	4a75      	ldr	r2, [pc, #468]	; (8000788 <main+0x56c>)
 80005b2:	5cd3      	ldrb	r3, [r2, r3]
 80005b4:	001a      	movs	r2, r3
        		g_u8LedRespGreenData = (LED_ON << g_au8GreenResponses
 80005b6:	2301      	movs	r3, #1
 80005b8:	4093      	lsls	r3, r2
        				[NUMBER_OF_LINES - g_u8ActiveRow]) | (g_u8ColumnGreen);
 80005ba:	b25a      	sxtb	r2, r3
 80005bc:	4b77      	ldr	r3, [pc, #476]	; (800079c <main+0x580>)
 80005be:	781b      	ldrb	r3, [r3, #0]
 80005c0:	b25b      	sxtb	r3, r3
 80005c2:	4313      	orrs	r3, r2
 80005c4:	b25b      	sxtb	r3, r3
 80005c6:	b2da      	uxtb	r2, r3
        		g_u8LedRespGreenData = (LED_ON << g_au8GreenResponses
 80005c8:	4b70      	ldr	r3, [pc, #448]	; (800078c <main+0x570>)
 80005ca:	701a      	strb	r2, [r3, #0]
			  	g_u8LedCallRedData = LED_OFF /*| (g_u8BinaryRed)*/;
 80005cc:	4b6d      	ldr	r3, [pc, #436]	; (8000784 <main+0x568>)
 80005ce:	2200      	movs	r2, #0
 80005d0:	701a      	strb	r2, [r3, #0]
			  	g_u8LedRespRedData = LED_OFF /*| (g_u8BinaryRed)*/;
 80005d2:	4b6f      	ldr	r3, [pc, #444]	; (8000790 <main+0x574>)
 80005d4:	2200      	movs	r2, #0
 80005d6:	701a      	strb	r2, [r3, #0]
        	}
        	if (g_u8ActiveRowColor == RED_COLOR) {
 80005d8:	4b65      	ldr	r3, [pc, #404]	; (8000770 <main+0x554>)
 80005da:	781b      	ldrb	r3, [r3, #0]
 80005dc:	2b02      	cmp	r3, #2
 80005de:	d129      	bne.n	8000634 <main+0x418>

        		g_u8LedCallRedData = (LED_ON << g_au8RedCalls[g_u8ActiveRow]) |
 80005e0:	4b65      	ldr	r3, [pc, #404]	; (8000778 <main+0x55c>)
 80005e2:	781b      	ldrb	r3, [r3, #0]
 80005e4:	001a      	movs	r2, r3
 80005e6:	4b6b      	ldr	r3, [pc, #428]	; (8000794 <main+0x578>)
 80005e8:	5c9b      	ldrb	r3, [r3, r2]
 80005ea:	001a      	movs	r2, r3
 80005ec:	2301      	movs	r3, #1
 80005ee:	4093      	lsls	r3, r2
 80005f0:	b25a      	sxtb	r2, r3
 80005f2:	4b6b      	ldr	r3, [pc, #428]	; (80007a0 <main+0x584>)
 80005f4:	781b      	ldrb	r3, [r3, #0]
 80005f6:	b25b      	sxtb	r3, r3
 80005f8:	4313      	orrs	r3, r2
 80005fa:	b25b      	sxtb	r3, r3
 80005fc:	b2da      	uxtb	r2, r3
 80005fe:	4b61      	ldr	r3, [pc, #388]	; (8000784 <main+0x568>)
 8000600:	701a      	strb	r2, [r3, #0]
        				(g_u8ColumnRed);
        		g_u8LedRespRedData = (LED_ON << g_au8RedResponses
        				[NUMBER_OF_LINES - g_u8ActiveRow]) | (g_u8ColumnRed);
 8000602:	4b5d      	ldr	r3, [pc, #372]	; (8000778 <main+0x55c>)
 8000604:	781b      	ldrb	r3, [r3, #0]
 8000606:	001a      	movs	r2, r3
 8000608:	2308      	movs	r3, #8
 800060a:	1a9b      	subs	r3, r3, r2
 800060c:	4a62      	ldr	r2, [pc, #392]	; (8000798 <main+0x57c>)
 800060e:	5cd3      	ldrb	r3, [r2, r3]
 8000610:	001a      	movs	r2, r3
        		g_u8LedRespRedData = (LED_ON << g_au8RedResponses
 8000612:	2301      	movs	r3, #1
 8000614:	4093      	lsls	r3, r2
        				[NUMBER_OF_LINES - g_u8ActiveRow]) | (g_u8ColumnRed);
 8000616:	b25a      	sxtb	r2, r3
 8000618:	4b61      	ldr	r3, [pc, #388]	; (80007a0 <main+0x584>)
 800061a:	781b      	ldrb	r3, [r3, #0]
 800061c:	b25b      	sxtb	r3, r3
 800061e:	4313      	orrs	r3, r2
 8000620:	b25b      	sxtb	r3, r3
 8000622:	b2da      	uxtb	r2, r3
        		g_u8LedRespRedData = (LED_ON << g_au8RedResponses
 8000624:	4b5a      	ldr	r3, [pc, #360]	; (8000790 <main+0x574>)
 8000626:	701a      	strb	r2, [r3, #0]
        		g_u8LedCallGreenData = LED_OFF /*| (g_u8BinaryGreen)*/;
 8000628:	4b55      	ldr	r3, [pc, #340]	; (8000780 <main+0x564>)
 800062a:	2200      	movs	r2, #0
 800062c:	701a      	strb	r2, [r3, #0]
        		g_u8LedRespGreenData = LED_OFF /*| (g_u8BinaryGreen)*/;
 800062e:	4b57      	ldr	r3, [pc, #348]	; (800078c <main+0x570>)
 8000630:	2200      	movs	r2, #0
 8000632:	701a      	strb	r2, [r3, #0]
        }


        //отобразили

        if (g_u8NeedToDisplayLedData) {
 8000634:	4b5b      	ldr	r3, [pc, #364]	; (80007a4 <main+0x588>)
 8000636:	781b      	ldrb	r3, [r3, #0]
 8000638:	2b00      	cmp	r3, #0
 800063a:	d03a      	beq.n	80006b2 <main+0x496>
        	clearLEDSR();
 800063c:	f000 fa48 	bl	8000ad0 <clearLEDSR>
        	loadLEDSR();
 8000640:	f000 fa5a 	bl	8000af8 <loadLEDSR>


        	if (USE_TIMER) {
        		g_u8NeedToDisplayLedData = 0;
 8000644:	4b57      	ldr	r3, [pc, #348]	; (80007a4 <main+0x588>)
 8000646:	2200      	movs	r2, #0
 8000648:	701a      	strb	r2, [r3, #0]
        	}
        	g_u8ActiveLed++;
 800064a:	4b4a      	ldr	r3, [pc, #296]	; (8000774 <main+0x558>)
 800064c:	781b      	ldrb	r3, [r3, #0]
 800064e:	3301      	adds	r3, #1
 8000650:	b2da      	uxtb	r2, r3
 8000652:	4b48      	ldr	r3, [pc, #288]	; (8000774 <main+0x558>)
 8000654:	701a      	strb	r2, [r3, #0]
        	if (g_u8ActiveLed == NUMBER_OF_LEDS) {
 8000656:	4b47      	ldr	r3, [pc, #284]	; (8000774 <main+0x558>)
 8000658:	781b      	ldrb	r3, [r3, #0]
 800065a:	2b10      	cmp	r3, #16
 800065c:	d10f      	bne.n	800067e <main+0x462>
        		g_u8ActiveRowColor++;
 800065e:	4b44      	ldr	r3, [pc, #272]	; (8000770 <main+0x554>)
 8000660:	781b      	ldrb	r3, [r3, #0]
 8000662:	3301      	adds	r3, #1
 8000664:	b2da      	uxtb	r2, r3
 8000666:	4b42      	ldr	r3, [pc, #264]	; (8000770 <main+0x554>)
 8000668:	701a      	strb	r2, [r3, #0]
        		g_u8ActiveLed = 0;
 800066a:	4b42      	ldr	r3, [pc, #264]	; (8000774 <main+0x558>)
 800066c:	2200      	movs	r2, #0
 800066e:	701a      	strb	r2, [r3, #0]
        		if (g_u8ActiveRowColor == NUMBER_OF_COLORS) {
 8000670:	4b3f      	ldr	r3, [pc, #252]	; (8000770 <main+0x554>)
 8000672:	781b      	ldrb	r3, [r3, #0]
 8000674:	2b04      	cmp	r3, #4
 8000676:	d102      	bne.n	800067e <main+0x462>
        			g_u8ActiveRowColor = 1;
 8000678:	4b3d      	ldr	r3, [pc, #244]	; (8000770 <main+0x554>)
 800067a:	2201      	movs	r2, #1
 800067c:	701a      	strb	r2, [r3, #0]

        		}
        	}
		 // g_u8ActiveRow++;

        	if (g_u8ActiveRow/* + g_u8StepNumber */== NUMBER_OF_LINES) {
 800067e:	4b3e      	ldr	r3, [pc, #248]	; (8000778 <main+0x55c>)
 8000680:	781b      	ldrb	r3, [r3, #0]
 8000682:	2b08      	cmp	r3, #8
 8000684:	d102      	bne.n	800068c <main+0x470>
        		g_u8ActiveRow = 0;
 8000686:	4b3c      	ldr	r3, [pc, #240]	; (8000778 <main+0x55c>)
 8000688:	2200      	movs	r2, #0
 800068a:	701a      	strb	r2, [r3, #0]
			  //g_u8StepNumber++;
			}
        	g_u8ActiveRow++;
 800068c:	4b3a      	ldr	r3, [pc, #232]	; (8000778 <main+0x55c>)
 800068e:	781b      	ldrb	r3, [r3, #0]
 8000690:	3301      	adds	r3, #1
 8000692:	b2da      	uxtb	r2, r3
 8000694:	4b38      	ldr	r3, [pc, #224]	; (8000778 <main+0x55c>)
 8000696:	701a      	strb	r2, [r3, #0]
        	if (g_u8StepNumber == NUMBER_OF_LINES) {
 8000698:	4b34      	ldr	r3, [pc, #208]	; (800076c <main+0x550>)
 800069a:	781b      	ldrb	r3, [r3, #0]
 800069c:	2b08      	cmp	r3, #8
 800069e:	d108      	bne.n	80006b2 <main+0x496>
				//break;
        		g_u8StepNumber = 0;
 80006a0:	4b32      	ldr	r3, [pc, #200]	; (800076c <main+0x550>)
 80006a2:	2200      	movs	r2, #0
 80006a4:	701a      	strb	r2, [r3, #0]
				g_u8ColumnGreen = 0b00000000;
 80006a6:	4b3d      	ldr	r3, [pc, #244]	; (800079c <main+0x580>)
 80006a8:	2200      	movs	r2, #0
 80006aa:	701a      	strb	r2, [r3, #0]
				g_u8ColumnRed = 0b00000000;
 80006ac:	4b3c      	ldr	r3, [pc, #240]	; (80007a0 <main+0x584>)
 80006ae:	2200      	movs	r2, #0
 80006b0:	701a      	strb	r2, [r3, #0]
//			    g_u8DisplayAllLinesUnicolor = 1;


        }

        if (g_u8AllLinesUnicolor == GREEN_COLOR) {
 80006b2:	4b3d      	ldr	r3, [pc, #244]	; (80007a8 <main+0x58c>)
 80006b4:	781b      	ldrb	r3, [r3, #0]
 80006b6:	2b01      	cmp	r3, #1
 80006b8:	d10b      	bne.n	80006d2 <main+0x4b6>

        	g_u8AllLedCallGreenData = LED_ON;
 80006ba:	4b3c      	ldr	r3, [pc, #240]	; (80007ac <main+0x590>)
 80006bc:	2201      	movs	r2, #1
 80006be:	701a      	strb	r2, [r3, #0]
        	g_u8AllLedRespGreenData = LED_ON;
 80006c0:	4b3b      	ldr	r3, [pc, #236]	; (80007b0 <main+0x594>)
 80006c2:	2201      	movs	r2, #1
 80006c4:	701a      	strb	r2, [r3, #0]
        	g_u8AllLedCallRedData = LED_OFF;
 80006c6:	4b3b      	ldr	r3, [pc, #236]	; (80007b4 <main+0x598>)
 80006c8:	2200      	movs	r2, #0
 80006ca:	701a      	strb	r2, [r3, #0]
        	g_u8AllLedRespRedData = LED_OFF;
 80006cc:	4b3a      	ldr	r3, [pc, #232]	; (80007b8 <main+0x59c>)
 80006ce:	2200      	movs	r2, #0
 80006d0:	701a      	strb	r2, [r3, #0]
        }

        if (g_u8AllLinesUnicolor == RED_COLOR) {
 80006d2:	4b35      	ldr	r3, [pc, #212]	; (80007a8 <main+0x58c>)
 80006d4:	781b      	ldrb	r3, [r3, #0]
 80006d6:	2b02      	cmp	r3, #2
 80006d8:	d10b      	bne.n	80006f2 <main+0x4d6>

        	g_u8AllLedCallGreenData = LED_OFF;
 80006da:	4b34      	ldr	r3, [pc, #208]	; (80007ac <main+0x590>)
 80006dc:	2200      	movs	r2, #0
 80006de:	701a      	strb	r2, [r3, #0]
        	g_u8AllLedRespGreenData = LED_OFF;
 80006e0:	4b33      	ldr	r3, [pc, #204]	; (80007b0 <main+0x594>)
 80006e2:	2200      	movs	r2, #0
 80006e4:	701a      	strb	r2, [r3, #0]
        	g_u8AllLedCallRedData = LED_ON;
 80006e6:	4b33      	ldr	r3, [pc, #204]	; (80007b4 <main+0x598>)
 80006e8:	2201      	movs	r2, #1
 80006ea:	701a      	strb	r2, [r3, #0]
        	g_u8AllLedRespRedData = LED_ON;
 80006ec:	4b32      	ldr	r3, [pc, #200]	; (80007b8 <main+0x59c>)
 80006ee:	2201      	movs	r2, #1
 80006f0:	701a      	strb	r2, [r3, #0]
        }

        if (g_u8AllLinesUnicolor == YELLOW_COLOR) {
 80006f2:	4b2d      	ldr	r3, [pc, #180]	; (80007a8 <main+0x58c>)
 80006f4:	781b      	ldrb	r3, [r3, #0]
 80006f6:	2b03      	cmp	r3, #3
 80006f8:	d10b      	bne.n	8000712 <main+0x4f6>

        	/*так горит жёлтый, в зависимости от того, что OFF будет другой цвет -
        	 	 	 * цикл?? условие7??? чтобы по порядку с прерыванием*/
        	g_u8AllLedCallGreenData = LED_ON;
 80006fa:	4b2c      	ldr	r3, [pc, #176]	; (80007ac <main+0x590>)
 80006fc:	2201      	movs	r2, #1
 80006fe:	701a      	strb	r2, [r3, #0]
        	g_u8AllLedRespGreenData = LED_ON;
 8000700:	4b2b      	ldr	r3, [pc, #172]	; (80007b0 <main+0x594>)
 8000702:	2201      	movs	r2, #1
 8000704:	701a      	strb	r2, [r3, #0]
        	g_u8AllLedCallRedData = LED_ON;
 8000706:	4b2b      	ldr	r3, [pc, #172]	; (80007b4 <main+0x598>)
 8000708:	2201      	movs	r2, #1
 800070a:	701a      	strb	r2, [r3, #0]
        	g_u8AllLedRespRedData = LED_ON;
 800070c:	4b2a      	ldr	r3, [pc, #168]	; (80007b8 <main+0x59c>)
 800070e:	2201      	movs	r2, #1
 8000710:	701a      	strb	r2, [r3, #0]
        }


        if (g_u8DisplayAllLinesUnicolor) {
 8000712:	4b2a      	ldr	r3, [pc, #168]	; (80007bc <main+0x5a0>)
 8000714:	781b      	ldrb	r3, [r3, #0]
 8000716:	2b00      	cmp	r3, #0
 8000718:	d100      	bne.n	800071c <main+0x500>
 800071a:	e5e7      	b.n	80002ec <main+0xd0>

        	HAL_GPIO_WritePin(LED_CALL_GREEN_SR_DATA_GPIO_Port,
 800071c:	4b23      	ldr	r3, [pc, #140]	; (80007ac <main+0x590>)
 800071e:	781a      	ldrb	r2, [r3, #0]
 8000720:	2390      	movs	r3, #144	; 0x90
 8000722:	05db      	lsls	r3, r3, #23
 8000724:	2120      	movs	r1, #32
 8000726:	0018      	movs	r0, r3
 8000728:	f000 fe45 	bl	80013b6 <HAL_GPIO_WritePin>
        			LED_CALL_GREEN_SR_DATA_Pin, g_u8AllLedCallGreenData);
        	HAL_GPIO_WritePin(LED_RESP_GREEN_SR_DATA_GPIO_Port,
 800072c:	4b20      	ldr	r3, [pc, #128]	; (80007b0 <main+0x594>)
 800072e:	781a      	ldrb	r2, [r3, #0]
 8000730:	2390      	movs	r3, #144	; 0x90
 8000732:	05db      	lsls	r3, r3, #23
 8000734:	2108      	movs	r1, #8
 8000736:	0018      	movs	r0, r3
 8000738:	f000 fe3d 	bl	80013b6 <HAL_GPIO_WritePin>
        			LED_RESP_GREEN_SR_DATA_Pin, g_u8AllLedRespGreenData);
        	HAL_GPIO_WritePin(LED_CALL_RED_SR_DATA_GPIO_Port,
 800073c:	4b1d      	ldr	r3, [pc, #116]	; (80007b4 <main+0x598>)
 800073e:	781a      	ldrb	r2, [r3, #0]
 8000740:	2390      	movs	r3, #144	; 0x90
 8000742:	05db      	lsls	r3, r3, #23
 8000744:	2110      	movs	r1, #16
 8000746:	0018      	movs	r0, r3
 8000748:	f000 fe35 	bl	80013b6 <HAL_GPIO_WritePin>
        			LED_CALL_RED_SR_DATA_Pin, g_u8AllLedCallRedData);
        	HAL_GPIO_WritePin(LED_RESP_RED_SR_DATA_GPIO_Port,
 800074c:	4b1a      	ldr	r3, [pc, #104]	; (80007b8 <main+0x59c>)
 800074e:	781a      	ldrb	r2, [r3, #0]
 8000750:	2390      	movs	r3, #144	; 0x90
 8000752:	05db      	lsls	r3, r3, #23
 8000754:	2104      	movs	r1, #4
 8000756:	0018      	movs	r0, r3
 8000758:	f000 fe2d 	bl	80013b6 <HAL_GPIO_WritePin>
        			LED_RESP_RED_SR_DATA_Pin, g_u8AllLedRespRedData);
        	for (uint8_t n = 0; n < NUMBER_OF_LINES; n++) {
 800075c:	1d3b      	adds	r3, r7, #4
 800075e:	2200      	movs	r2, #0
 8000760:	701a      	strb	r2, [r3, #0]
 8000762:	e040      	b.n	80007e6 <main+0x5ca>
 8000764:	200000f8 	.word	0x200000f8
 8000768:	48000400 	.word	0x48000400
 800076c:	200000e6 	.word	0x200000e6
 8000770:	20000000 	.word	0x20000000
 8000774:	200000e5 	.word	0x200000e5
 8000778:	200000e4 	.word	0x200000e4
 800077c:	20000004 	.word	0x20000004
 8000780:	200000dc 	.word	0x200000dc
 8000784:	200000de 	.word	0x200000de
 8000788:	2000000c 	.word	0x2000000c
 800078c:	200000dd 	.word	0x200000dd
 8000790:	200000df 	.word	0x200000df
 8000794:	20000014 	.word	0x20000014
 8000798:	2000001c 	.word	0x2000001c
 800079c:	200000e8 	.word	0x200000e8
 80007a0:	200000e9 	.word	0x200000e9
 80007a4:	20000002 	.word	0x20000002
 80007a8:	20000001 	.word	0x20000001
 80007ac:	200000e0 	.word	0x200000e0
 80007b0:	200000e1 	.word	0x200000e1
 80007b4:	200000e2 	.word	0x200000e2
 80007b8:	200000e3 	.word	0x200000e3
 80007bc:	200000e7 	.word	0x200000e7
        		HAL_GPIO_WritePin(STP_SR_LED_CLK_GPIO_Port, STP_SR_LED_CLK_Pin,
 80007c0:	2390      	movs	r3, #144	; 0x90
 80007c2:	05db      	lsls	r3, r3, #23
 80007c4:	2201      	movs	r2, #1
 80007c6:	2180      	movs	r1, #128	; 0x80
 80007c8:	0018      	movs	r0, r3
 80007ca:	f000 fdf4 	bl	80013b6 <HAL_GPIO_WritePin>
        				GPIO_PIN_SET);
        		HAL_GPIO_WritePin(STP_SR_LED_CLK_GPIO_Port, STP_SR_LED_CLK_Pin,
 80007ce:	2390      	movs	r3, #144	; 0x90
 80007d0:	05db      	lsls	r3, r3, #23
 80007d2:	2200      	movs	r2, #0
 80007d4:	2180      	movs	r1, #128	; 0x80
 80007d6:	0018      	movs	r0, r3
 80007d8:	f000 fded 	bl	80013b6 <HAL_GPIO_WritePin>
        	for (uint8_t n = 0; n < NUMBER_OF_LINES; n++) {
 80007dc:	1d3b      	adds	r3, r7, #4
 80007de:	781a      	ldrb	r2, [r3, #0]
 80007e0:	1d3b      	adds	r3, r7, #4
 80007e2:	3201      	adds	r2, #1
 80007e4:	701a      	strb	r2, [r3, #0]
 80007e6:	1d3b      	adds	r3, r7, #4
 80007e8:	781b      	ldrb	r3, [r3, #0]
 80007ea:	2b07      	cmp	r3, #7
 80007ec:	d9e8      	bls.n	80007c0 <main+0x5a4>
        				GPIO_PIN_RESET);
        	}
        	g_u8DisplayAllLinesUnicolor = 0;
 80007ee:	4b02      	ldr	r3, [pc, #8]	; (80007f8 <main+0x5dc>)
 80007f0:	2200      	movs	r2, #0
 80007f2:	701a      	strb	r2, [r3, #0]
        if (g_u8NeedToRingLine) {
 80007f4:	e57a      	b.n	80002ec <main+0xd0>
 80007f6:	46c0      	nop			; (mov r8, r8)
 80007f8:	200000e7 	.word	0x200000e7

080007fc <SystemClock_Config>:
/**
  * @brief System Clock Configuration
  * @retval None
  */
void SystemClock_Config(void)
{
 80007fc:	b590      	push	{r4, r7, lr}
 80007fe:	b093      	sub	sp, #76	; 0x4c
 8000800:	af00      	add	r7, sp, #0
  RCC_OscInitTypeDef RCC_OscInitStruct = {0};
 8000802:	2414      	movs	r4, #20
 8000804:	193b      	adds	r3, r7, r4
 8000806:	0018      	movs	r0, r3
 8000808:	2334      	movs	r3, #52	; 0x34
 800080a:	001a      	movs	r2, r3
 800080c:	2100      	movs	r1, #0
 800080e:	f001 ff15 	bl	800263c <memset>
  RCC_ClkInitTypeDef RCC_ClkInitStruct = {0};
 8000812:	1d3b      	adds	r3, r7, #4
 8000814:	0018      	movs	r0, r3
 8000816:	2310      	movs	r3, #16
 8000818:	001a      	movs	r2, r3
 800081a:	2100      	movs	r1, #0
 800081c:	f001 ff0e 	bl	800263c <memset>

  /** Initializes the RCC Oscillators according to the specified parameters
  * in the RCC_OscInitTypeDef structure.
  */
  RCC_OscInitStruct.OscillatorType = RCC_OSCILLATORTYPE_HSI;
 8000820:	0021      	movs	r1, r4
 8000822:	187b      	adds	r3, r7, r1
 8000824:	2202      	movs	r2, #2
 8000826:	601a      	str	r2, [r3, #0]
  RCC_OscInitStruct.HSIState = RCC_HSI_ON;
 8000828:	187b      	adds	r3, r7, r1
 800082a:	2201      	movs	r2, #1
 800082c:	60da      	str	r2, [r3, #12]
  RCC_OscInitStruct.HSICalibrationValue = RCC_HSICALIBRATION_DEFAULT;
 800082e:	187b      	adds	r3, r7, r1
 8000830:	2210      	movs	r2, #16
 8000832:	611a      	str	r2, [r3, #16]
  RCC_OscInitStruct.PLL.PLLState = RCC_PLL_ON;
 8000834:	187b      	adds	r3, r7, r1
 8000836:	2202      	movs	r2, #2
 8000838:	625a      	str	r2, [r3, #36]	; 0x24
  RCC_OscInitStruct.PLL.PLLSource = RCC_PLLSOURCE_HSI;
 800083a:	187b      	adds	r3, r7, r1
 800083c:	2280      	movs	r2, #128	; 0x80
 800083e:	0212      	lsls	r2, r2, #8
 8000840:	629a      	str	r2, [r3, #40]	; 0x28
  RCC_OscInitStruct.PLL.PLLMUL = RCC_PLL_MUL4;
 8000842:	187b      	adds	r3, r7, r1
 8000844:	2280      	movs	r2, #128	; 0x80
 8000846:	0312      	lsls	r2, r2, #12
 8000848:	62da      	str	r2, [r3, #44]	; 0x2c
  RCC_OscInitStruct.PLL.PREDIV = RCC_PREDIV_DIV1;
 800084a:	187b      	adds	r3, r7, r1
 800084c:	2200      	movs	r2, #0
 800084e:	631a      	str	r2, [r3, #48]	; 0x30
  if (HAL_RCC_OscConfig(&RCC_OscInitStruct) != HAL_OK)
 8000850:	187b      	adds	r3, r7, r1
 8000852:	0018      	movs	r0, r3
 8000854:	f000 fdcc 	bl	80013f0 <HAL_RCC_OscConfig>
 8000858:	1e03      	subs	r3, r0, #0
 800085a:	d001      	beq.n	8000860 <SystemClock_Config+0x64>
  {
    Error_Handler();
 800085c:	f000 f9e4 	bl	8000c28 <Error_Handler>
  }

  /** Initializes the CPU, AHB and APB buses clocks
  */
  RCC_ClkInitStruct.ClockType = RCC_CLOCKTYPE_HCLK|RCC_CLOCKTYPE_SYSCLK
 8000860:	1d3b      	adds	r3, r7, #4
 8000862:	2207      	movs	r2, #7
 8000864:	601a      	str	r2, [r3, #0]
                              |RCC_CLOCKTYPE_PCLK1;
  RCC_ClkInitStruct.SYSCLKSource = RCC_SYSCLKSOURCE_PLLCLK;
 8000866:	1d3b      	adds	r3, r7, #4
 8000868:	2202      	movs	r2, #2
 800086a:	605a      	str	r2, [r3, #4]
  RCC_ClkInitStruct.AHBCLKDivider = RCC_SYSCLK_DIV2;
 800086c:	1d3b      	adds	r3, r7, #4
 800086e:	2280      	movs	r2, #128	; 0x80
 8000870:	609a      	str	r2, [r3, #8]
  RCC_ClkInitStruct.APB1CLKDivider = RCC_HCLK_DIV1;
 8000872:	1d3b      	adds	r3, r7, #4
 8000874:	2200      	movs	r2, #0
 8000876:	60da      	str	r2, [r3, #12]

  if (HAL_RCC_ClockConfig(&RCC_ClkInitStruct, FLASH_LATENCY_1) != HAL_OK)
 8000878:	1d3b      	adds	r3, r7, #4
 800087a:	2101      	movs	r1, #1
 800087c:	0018      	movs	r0, r3
 800087e:	f001 f93d 	bl	8001afc <HAL_RCC_ClockConfig>
 8000882:	1e03      	subs	r3, r0, #0
 8000884:	d001      	beq.n	800088a <SystemClock_Config+0x8e>
  {
    Error_Handler();
 8000886:	f000 f9cf 	bl	8000c28 <Error_Handler>
  }
}
 800088a:	46c0      	nop			; (mov r8, r8)
 800088c:	46bd      	mov	sp, r7
 800088e:	b013      	add	sp, #76	; 0x4c
 8000890:	bd90      	pop	{r4, r7, pc}
	...

08000894 <MX_TIM3_Init>:
  * @brief TIM3 Initialization Function
  * @param None
  * @retval None
  */
static void MX_TIM3_Init(void)
{
 8000894:	b580      	push	{r7, lr}
 8000896:	b086      	sub	sp, #24
 8000898:	af00      	add	r7, sp, #0

  /* USER CODE BEGIN TIM3_Init 0 */

  /* USER CODE END TIM3_Init 0 */

  TIM_ClockConfigTypeDef sClockSourceConfig = {0};
 800089a:	2308      	movs	r3, #8
 800089c:	18fb      	adds	r3, r7, r3
 800089e:	0018      	movs	r0, r3
 80008a0:	2310      	movs	r3, #16
 80008a2:	001a      	movs	r2, r3
 80008a4:	2100      	movs	r1, #0
 80008a6:	f001 fec9 	bl	800263c <memset>
  TIM_MasterConfigTypeDef sMasterConfig = {0};
 80008aa:	003b      	movs	r3, r7
 80008ac:	0018      	movs	r0, r3
 80008ae:	2308      	movs	r3, #8
 80008b0:	001a      	movs	r2, r3
 80008b2:	2100      	movs	r1, #0
 80008b4:	f001 fec2 	bl	800263c <memset>

  /* USER CODE BEGIN TIM3_Init 1 */

  /* USER CODE END TIM3_Init 1 */
  htim3.Instance = TIM3;
 80008b8:	4b1e      	ldr	r3, [pc, #120]	; (8000934 <MX_TIM3_Init+0xa0>)
 80008ba:	4a1f      	ldr	r2, [pc, #124]	; (8000938 <MX_TIM3_Init+0xa4>)
 80008bc:	601a      	str	r2, [r3, #0]
  htim3.Init.Prescaler = 15999;
 80008be:	4b1d      	ldr	r3, [pc, #116]	; (8000934 <MX_TIM3_Init+0xa0>)
 80008c0:	4a1e      	ldr	r2, [pc, #120]	; (800093c <MX_TIM3_Init+0xa8>)
 80008c2:	605a      	str	r2, [r3, #4]
  htim3.Init.CounterMode = TIM_COUNTERMODE_UP;
 80008c4:	4b1b      	ldr	r3, [pc, #108]	; (8000934 <MX_TIM3_Init+0xa0>)
 80008c6:	2200      	movs	r2, #0
 80008c8:	609a      	str	r2, [r3, #8]
  htim3.Init.Period = 64999;
 80008ca:	4b1a      	ldr	r3, [pc, #104]	; (8000934 <MX_TIM3_Init+0xa0>)
 80008cc:	4a1c      	ldr	r2, [pc, #112]	; (8000940 <MX_TIM3_Init+0xac>)
 80008ce:	60da      	str	r2, [r3, #12]
  htim3.Init.ClockDivision = TIM_CLOCKDIVISION_DIV1;
 80008d0:	4b18      	ldr	r3, [pc, #96]	; (8000934 <MX_TIM3_Init+0xa0>)
 80008d2:	2200      	movs	r2, #0
 80008d4:	611a      	str	r2, [r3, #16]
  htim3.Init.AutoReloadPreload = TIM_AUTORELOAD_PRELOAD_DISABLE;
 80008d6:	4b17      	ldr	r3, [pc, #92]	; (8000934 <MX_TIM3_Init+0xa0>)
 80008d8:	2200      	movs	r2, #0
 80008da:	619a      	str	r2, [r3, #24]
  if (HAL_TIM_Base_Init(&htim3) != HAL_OK)
 80008dc:	4b15      	ldr	r3, [pc, #84]	; (8000934 <MX_TIM3_Init+0xa0>)
 80008de:	0018      	movs	r0, r3
 80008e0:	f001 fa78 	bl	8001dd4 <HAL_TIM_Base_Init>
 80008e4:	1e03      	subs	r3, r0, #0
 80008e6:	d001      	beq.n	80008ec <MX_TIM3_Init+0x58>
  {
    Error_Handler();
 80008e8:	f000 f99e 	bl	8000c28 <Error_Handler>
  }
  sClockSourceConfig.ClockSource = TIM_CLOCKSOURCE_INTERNAL;
 80008ec:	2108      	movs	r1, #8
 80008ee:	187b      	adds	r3, r7, r1
 80008f0:	2280      	movs	r2, #128	; 0x80
 80008f2:	0152      	lsls	r2, r2, #5
 80008f4:	601a      	str	r2, [r3, #0]
  if (HAL_TIM_ConfigClockSource(&htim3, &sClockSourceConfig) != HAL_OK)
 80008f6:	187a      	adds	r2, r7, r1
 80008f8:	4b0e      	ldr	r3, [pc, #56]	; (8000934 <MX_TIM3_Init+0xa0>)
 80008fa:	0011      	movs	r1, r2
 80008fc:	0018      	movs	r0, r3
 80008fe:	f001 fc21 	bl	8002144 <HAL_TIM_ConfigClockSource>
 8000902:	1e03      	subs	r3, r0, #0
 8000904:	d001      	beq.n	800090a <MX_TIM3_Init+0x76>
  {
    Error_Handler();
 8000906:	f000 f98f 	bl	8000c28 <Error_Handler>
  }
  sMasterConfig.MasterOutputTrigger = TIM_TRGO_RESET;
 800090a:	003b      	movs	r3, r7
 800090c:	2200      	movs	r2, #0
 800090e:	601a      	str	r2, [r3, #0]
  sMasterConfig.MasterSlaveMode = TIM_MASTERSLAVEMODE_DISABLE;
 8000910:	003b      	movs	r3, r7
 8000912:	2200      	movs	r2, #0
 8000914:	605a      	str	r2, [r3, #4]
  if (HAL_TIMEx_MasterConfigSynchronization(&htim3, &sMasterConfig) != HAL_OK)
 8000916:	003a      	movs	r2, r7
 8000918:	4b06      	ldr	r3, [pc, #24]	; (8000934 <MX_TIM3_Init+0xa0>)
 800091a:	0011      	movs	r1, r2
 800091c:	0018      	movs	r0, r3
 800091e:	f001 fe1f 	bl	8002560 <HAL_TIMEx_MasterConfigSynchronization>
 8000922:	1e03      	subs	r3, r0, #0
 8000924:	d001      	beq.n	800092a <MX_TIM3_Init+0x96>
  {
    Error_Handler();
 8000926:	f000 f97f 	bl	8000c28 <Error_Handler>
  }
  /* USER CODE BEGIN TIM3_Init 2 */

  /* USER CODE END TIM3_Init 2 */

}
 800092a:	46c0      	nop			; (mov r8, r8)
 800092c:	46bd      	mov	sp, r7
 800092e:	b006      	add	sp, #24
 8000930:	bd80      	pop	{r7, pc}
 8000932:	46c0      	nop			; (mov r8, r8)
 8000934:	2000004c 	.word	0x2000004c
 8000938:	40000400 	.word	0x40000400
 800093c:	00003e7f 	.word	0x00003e7f
 8000940:	0000fde7 	.word	0x0000fde7

08000944 <MX_TIM6_Init>:
  * @brief TIM6 Initialization Function
  * @param None
  * @retval None
  */
static void MX_TIM6_Init(void)
{
 8000944:	b580      	push	{r7, lr}
 8000946:	b082      	sub	sp, #8
 8000948:	af00      	add	r7, sp, #0

  /* USER CODE BEGIN TIM6_Init 0 */

  /* USER CODE END TIM6_Init 0 */

  TIM_MasterConfigTypeDef sMasterConfig = {0};
 800094a:	003b      	movs	r3, r7
 800094c:	0018      	movs	r0, r3
 800094e:	2308      	movs	r3, #8
 8000950:	001a      	movs	r2, r3
 8000952:	2100      	movs	r1, #0
 8000954:	f001 fe72 	bl	800263c <memset>

  /* USER CODE BEGIN TIM6_Init 1 */

  /* USER CODE END TIM6_Init 1 */
  htim6.Instance = TIM6;
 8000958:	4b15      	ldr	r3, [pc, #84]	; (80009b0 <MX_TIM6_Init+0x6c>)
 800095a:	4a16      	ldr	r2, [pc, #88]	; (80009b4 <MX_TIM6_Init+0x70>)
 800095c:	601a      	str	r2, [r3, #0]
  htim6.Init.Prescaler = 1600;
 800095e:	4b14      	ldr	r3, [pc, #80]	; (80009b0 <MX_TIM6_Init+0x6c>)
 8000960:	22c8      	movs	r2, #200	; 0xc8
 8000962:	00d2      	lsls	r2, r2, #3
 8000964:	605a      	str	r2, [r3, #4]
  htim6.Init.CounterMode = TIM_COUNTERMODE_UP;
 8000966:	4b12      	ldr	r3, [pc, #72]	; (80009b0 <MX_TIM6_Init+0x6c>)
 8000968:	2200      	movs	r2, #0
 800096a:	609a      	str	r2, [r3, #8]
  htim6.Init.Period = 65535;
 800096c:	4b10      	ldr	r3, [pc, #64]	; (80009b0 <MX_TIM6_Init+0x6c>)
 800096e:	4a12      	ldr	r2, [pc, #72]	; (80009b8 <MX_TIM6_Init+0x74>)
 8000970:	60da      	str	r2, [r3, #12]
  htim6.Init.AutoReloadPreload = TIM_AUTORELOAD_PRELOAD_DISABLE;
 8000972:	4b0f      	ldr	r3, [pc, #60]	; (80009b0 <MX_TIM6_Init+0x6c>)
 8000974:	2200      	movs	r2, #0
 8000976:	619a      	str	r2, [r3, #24]
  if (HAL_TIM_Base_Init(&htim6) != HAL_OK)
 8000978:	4b0d      	ldr	r3, [pc, #52]	; (80009b0 <MX_TIM6_Init+0x6c>)
 800097a:	0018      	movs	r0, r3
 800097c:	f001 fa2a 	bl	8001dd4 <HAL_TIM_Base_Init>
 8000980:	1e03      	subs	r3, r0, #0
 8000982:	d001      	beq.n	8000988 <MX_TIM6_Init+0x44>
  {
    Error_Handler();
 8000984:	f000 f950 	bl	8000c28 <Error_Handler>
  }
  sMasterConfig.MasterOutputTrigger = TIM_TRGO_RESET;
 8000988:	003b      	movs	r3, r7
 800098a:	2200      	movs	r2, #0
 800098c:	601a      	str	r2, [r3, #0]
  sMasterConfig.MasterSlaveMode = TIM_MASTERSLAVEMODE_DISABLE;
 800098e:	003b      	movs	r3, r7
 8000990:	2200      	movs	r2, #0
 8000992:	605a      	str	r2, [r3, #4]
  if (HAL_TIMEx_MasterConfigSynchronization(&htim6, &sMasterConfig) != HAL_OK)
 8000994:	003a      	movs	r2, r7
 8000996:	4b06      	ldr	r3, [pc, #24]	; (80009b0 <MX_TIM6_Init+0x6c>)
 8000998:	0011      	movs	r1, r2
 800099a:	0018      	movs	r0, r3
 800099c:	f001 fde0 	bl	8002560 <HAL_TIMEx_MasterConfigSynchronization>
 80009a0:	1e03      	subs	r3, r0, #0
 80009a2:	d001      	beq.n	80009a8 <MX_TIM6_Init+0x64>
  {
    Error_Handler();
 80009a4:	f000 f940 	bl	8000c28 <Error_Handler>
  }
  /* USER CODE BEGIN TIM6_Init 2 */

  /* USER CODE END TIM6_Init 2 */

}
 80009a8:	46c0      	nop			; (mov r8, r8)
 80009aa:	46bd      	mov	sp, r7
 80009ac:	b002      	add	sp, #8
 80009ae:	bd80      	pop	{r7, pc}
 80009b0:	20000094 	.word	0x20000094
 80009b4:	40001000 	.word	0x40001000
 80009b8:	0000ffff 	.word	0x0000ffff

080009bc <MX_GPIO_Init>:
  * @brief GPIO Initialization Function
  * @param None
  * @retval None
  */
static void MX_GPIO_Init(void)
{
 80009bc:	b590      	push	{r4, r7, lr}
 80009be:	b089      	sub	sp, #36	; 0x24
 80009c0:	af00      	add	r7, sp, #0
  GPIO_InitTypeDef GPIO_InitStruct = {0};
 80009c2:	240c      	movs	r4, #12
 80009c4:	193b      	adds	r3, r7, r4
 80009c6:	0018      	movs	r0, r3
 80009c8:	2314      	movs	r3, #20
 80009ca:	001a      	movs	r2, r3
 80009cc:	2100      	movs	r1, #0
 80009ce:	f001 fe35 	bl	800263c <memset>

  /* GPIO Ports Clock Enable */
  __HAL_RCC_GPIOA_CLK_ENABLE();
 80009d2:	4b3c      	ldr	r3, [pc, #240]	; (8000ac4 <MX_GPIO_Init+0x108>)
 80009d4:	695a      	ldr	r2, [r3, #20]
 80009d6:	4b3b      	ldr	r3, [pc, #236]	; (8000ac4 <MX_GPIO_Init+0x108>)
 80009d8:	2180      	movs	r1, #128	; 0x80
 80009da:	0289      	lsls	r1, r1, #10
 80009dc:	430a      	orrs	r2, r1
 80009de:	615a      	str	r2, [r3, #20]
 80009e0:	4b38      	ldr	r3, [pc, #224]	; (8000ac4 <MX_GPIO_Init+0x108>)
 80009e2:	695a      	ldr	r2, [r3, #20]
 80009e4:	2380      	movs	r3, #128	; 0x80
 80009e6:	029b      	lsls	r3, r3, #10
 80009e8:	4013      	ands	r3, r2
 80009ea:	60bb      	str	r3, [r7, #8]
 80009ec:	68bb      	ldr	r3, [r7, #8]
  __HAL_RCC_GPIOB_CLK_ENABLE();
 80009ee:	4b35      	ldr	r3, [pc, #212]	; (8000ac4 <MX_GPIO_Init+0x108>)
 80009f0:	695a      	ldr	r2, [r3, #20]
 80009f2:	4b34      	ldr	r3, [pc, #208]	; (8000ac4 <MX_GPIO_Init+0x108>)
 80009f4:	2180      	movs	r1, #128	; 0x80
 80009f6:	02c9      	lsls	r1, r1, #11
 80009f8:	430a      	orrs	r2, r1
 80009fa:	615a      	str	r2, [r3, #20]
 80009fc:	4b31      	ldr	r3, [pc, #196]	; (8000ac4 <MX_GPIO_Init+0x108>)
 80009fe:	695a      	ldr	r2, [r3, #20]
 8000a00:	2380      	movs	r3, #128	; 0x80
 8000a02:	02db      	lsls	r3, r3, #11
 8000a04:	4013      	ands	r3, r2
 8000a06:	607b      	str	r3, [r7, #4]
 8000a08:	687b      	ldr	r3, [r7, #4]

  /*Configure GPIO pin Output Level */
  HAL_GPIO_WritePin(GPIOA, LED_RESP_RED_SR_DATA_Pin|LED_RESP_GREEN_SR_DATA_Pin|LED_CALL_RED_SR_DATA_Pin|LED_CALL_GREEN_SR_DATA_Pin
 8000a0a:	492f      	ldr	r1, [pc, #188]	; (8000ac8 <MX_GPIO_Init+0x10c>)
 8000a0c:	2390      	movs	r3, #144	; 0x90
 8000a0e:	05db      	lsls	r3, r3, #23
 8000a10:	2200      	movs	r2, #0
 8000a12:	0018      	movs	r0, r3
 8000a14:	f000 fccf 	bl	80013b6 <HAL_GPIO_WritePin>
                          |STP_SR_LED_nCLR_Pin|STP_SR_LED_CLK_Pin|LINE_RESPONSE_SR_SHnLD_Pin, GPIO_PIN_RESET);

  /*Configure GPIO pin Output Level */
  HAL_GPIO_WritePin(GPIOB, LINE_RESPONSE_SR_CLK_Pin|LINE_CALL_SR_nCLR_Pin|LINE_CALL_SR_CLK_Pin|LINE_CALL_SR_DATA_Pin, GPIO_PIN_RESET);
 8000a18:	4b2c      	ldr	r3, [pc, #176]	; (8000acc <MX_GPIO_Init+0x110>)
 8000a1a:	2200      	movs	r2, #0
 8000a1c:	21e8      	movs	r1, #232	; 0xe8
 8000a1e:	0018      	movs	r0, r3
 8000a20:	f000 fcc9 	bl	80013b6 <HAL_GPIO_WritePin>

  /*Configure GPIO pins : LED_RESP_RED_SR_DATA_Pin LED_RESP_GREEN_SR_DATA_Pin LED_CALL_RED_SR_DATA_Pin LED_CALL_GREEN_SR_DATA_Pin
                           STP_SR_LED_nCLR_Pin STP_SR_LED_CLK_Pin */
  GPIO_InitStruct.Pin = LED_RESP_RED_SR_DATA_Pin|LED_RESP_GREEN_SR_DATA_Pin|LED_CALL_RED_SR_DATA_Pin|LED_CALL_GREEN_SR_DATA_Pin
 8000a24:	193b      	adds	r3, r7, r4
 8000a26:	22fc      	movs	r2, #252	; 0xfc
 8000a28:	601a      	str	r2, [r3, #0]
                          |STP_SR_LED_nCLR_Pin|STP_SR_LED_CLK_Pin;
  GPIO_InitStruct.Mode = GPIO_MODE_OUTPUT_PP;
 8000a2a:	193b      	adds	r3, r7, r4
 8000a2c:	2201      	movs	r2, #1
 8000a2e:	605a      	str	r2, [r3, #4]
  GPIO_InitStruct.Pull = GPIO_NOPULL;
 8000a30:	193b      	adds	r3, r7, r4
 8000a32:	2200      	movs	r2, #0
 8000a34:	609a      	str	r2, [r3, #8]
  GPIO_InitStruct.Speed = GPIO_SPEED_FREQ_MEDIUM;
 8000a36:	193b      	adds	r3, r7, r4
 8000a38:	2201      	movs	r2, #1
 8000a3a:	60da      	str	r2, [r3, #12]
  HAL_GPIO_Init(GPIOA, &GPIO_InitStruct);
 8000a3c:	193a      	adds	r2, r7, r4
 8000a3e:	2390      	movs	r3, #144	; 0x90
 8000a40:	05db      	lsls	r3, r3, #23
 8000a42:	0011      	movs	r1, r2
 8000a44:	0018      	movs	r0, r3
 8000a46:	f000 fb21 	bl	800108c <HAL_GPIO_Init>

  /*Configure GPIO pin : LINE_RESPONSE_SR_SHnLD_Pin */
  GPIO_InitStruct.Pin = LINE_RESPONSE_SR_SHnLD_Pin;
 8000a4a:	0021      	movs	r1, r4
 8000a4c:	187b      	adds	r3, r7, r1
 8000a4e:	2280      	movs	r2, #128	; 0x80
 8000a50:	0212      	lsls	r2, r2, #8
 8000a52:	601a      	str	r2, [r3, #0]
  GPIO_InitStruct.Mode = GPIO_MODE_OUTPUT_PP;
 8000a54:	000c      	movs	r4, r1
 8000a56:	193b      	adds	r3, r7, r4
 8000a58:	2201      	movs	r2, #1
 8000a5a:	605a      	str	r2, [r3, #4]
  GPIO_InitStruct.Pull = GPIO_NOPULL;
 8000a5c:	193b      	adds	r3, r7, r4
 8000a5e:	2200      	movs	r2, #0
 8000a60:	609a      	str	r2, [r3, #8]
  GPIO_InitStruct.Speed = GPIO_SPEED_FREQ_LOW;
 8000a62:	193b      	adds	r3, r7, r4
 8000a64:	2200      	movs	r2, #0
 8000a66:	60da      	str	r2, [r3, #12]
  HAL_GPIO_Init(LINE_RESPONSE_SR_SHnLD_GPIO_Port, &GPIO_InitStruct);
 8000a68:	193a      	adds	r2, r7, r4
 8000a6a:	2390      	movs	r3, #144	; 0x90
 8000a6c:	05db      	lsls	r3, r3, #23
 8000a6e:	0011      	movs	r1, r2
 8000a70:	0018      	movs	r0, r3
 8000a72:	f000 fb0b 	bl	800108c <HAL_GPIO_Init>

  /*Configure GPIO pins : LINE_RESPONSE_SR_CLK_Pin LINE_CALL_SR_nCLR_Pin LINE_CALL_SR_CLK_Pin LINE_CALL_SR_DATA_Pin */
  GPIO_InitStruct.Pin = LINE_RESPONSE_SR_CLK_Pin|LINE_CALL_SR_nCLR_Pin|LINE_CALL_SR_CLK_Pin|LINE_CALL_SR_DATA_Pin;
 8000a76:	193b      	adds	r3, r7, r4
 8000a78:	22e8      	movs	r2, #232	; 0xe8
 8000a7a:	601a      	str	r2, [r3, #0]
  GPIO_InitStruct.Mode = GPIO_MODE_OUTPUT_PP;
 8000a7c:	193b      	adds	r3, r7, r4
 8000a7e:	2201      	movs	r2, #1
 8000a80:	605a      	str	r2, [r3, #4]
  GPIO_InitStruct.Pull = GPIO_NOPULL;
 8000a82:	193b      	adds	r3, r7, r4
 8000a84:	2200      	movs	r2, #0
 8000a86:	609a      	str	r2, [r3, #8]
  GPIO_InitStruct.Speed = GPIO_SPEED_FREQ_LOW;
 8000a88:	193b      	adds	r3, r7, r4
 8000a8a:	2200      	movs	r2, #0
 8000a8c:	60da      	str	r2, [r3, #12]
  HAL_GPIO_Init(GPIOB, &GPIO_InitStruct);
 8000a8e:	193b      	adds	r3, r7, r4
 8000a90:	4a0e      	ldr	r2, [pc, #56]	; (8000acc <MX_GPIO_Init+0x110>)
 8000a92:	0019      	movs	r1, r3
 8000a94:	0010      	movs	r0, r2
 8000a96:	f000 faf9 	bl	800108c <HAL_GPIO_Init>

  /*Configure GPIO pin : LINE_RESPONSE_SR_DATA_Pin */
  GPIO_InitStruct.Pin = LINE_RESPONSE_SR_DATA_Pin;
 8000a9a:	0021      	movs	r1, r4
 8000a9c:	187b      	adds	r3, r7, r1
 8000a9e:	2210      	movs	r2, #16
 8000aa0:	601a      	str	r2, [r3, #0]
  GPIO_InitStruct.Mode = GPIO_MODE_INPUT;
 8000aa2:	187b      	adds	r3, r7, r1
 8000aa4:	2200      	movs	r2, #0
 8000aa6:	605a      	str	r2, [r3, #4]
  GPIO_InitStruct.Pull = GPIO_NOPULL;
 8000aa8:	187b      	adds	r3, r7, r1
 8000aaa:	2200      	movs	r2, #0
 8000aac:	609a      	str	r2, [r3, #8]
  HAL_GPIO_Init(LINE_RESPONSE_SR_DATA_GPIO_Port, &GPIO_InitStruct);
 8000aae:	187b      	adds	r3, r7, r1
 8000ab0:	4a06      	ldr	r2, [pc, #24]	; (8000acc <MX_GPIO_Init+0x110>)
 8000ab2:	0019      	movs	r1, r3
 8000ab4:	0010      	movs	r0, r2
 8000ab6:	f000 fae9 	bl	800108c <HAL_GPIO_Init>

}
 8000aba:	46c0      	nop			; (mov r8, r8)
 8000abc:	46bd      	mov	sp, r7
 8000abe:	b009      	add	sp, #36	; 0x24
 8000ac0:	bd90      	pop	{r4, r7, pc}
 8000ac2:	46c0      	nop			; (mov r8, r8)
 8000ac4:	40021000 	.word	0x40021000
 8000ac8:	000080fc 	.word	0x000080fc
 8000acc:	48000400 	.word	0x48000400

08000ad0 <clearLEDSR>:

/* USER CODE BEGIN 4 */

void clearLEDSR(void)
{
 8000ad0:	b580      	push	{r7, lr}
 8000ad2:	af00      	add	r7, sp, #0

	HAL_GPIO_WritePin(STP_SR_LED_nCLR_GPIO_Port, STP_SR_LED_nCLR_Pin,
 8000ad4:	2390      	movs	r3, #144	; 0x90
 8000ad6:	05db      	lsls	r3, r3, #23
 8000ad8:	2200      	movs	r2, #0
 8000ada:	2140      	movs	r1, #64	; 0x40
 8000adc:	0018      	movs	r0, r3
 8000ade:	f000 fc6a 	bl	80013b6 <HAL_GPIO_WritePin>
			GPIO_PIN_RESET);
	HAL_GPIO_WritePin(STP_SR_LED_nCLR_GPIO_Port, STP_SR_LED_nCLR_Pin,
 8000ae2:	2390      	movs	r3, #144	; 0x90
 8000ae4:	05db      	lsls	r3, r3, #23
 8000ae6:	2201      	movs	r2, #1
 8000ae8:	2140      	movs	r1, #64	; 0x40
 8000aea:	0018      	movs	r0, r3
 8000aec:	f000 fc63 	bl	80013b6 <HAL_GPIO_WritePin>
			GPIO_PIN_SET);
}
 8000af0:	46c0      	nop			; (mov r8, r8)
 8000af2:	46bd      	mov	sp, r7
 8000af4:	bd80      	pop	{r7, pc}
	...

08000af8 <loadLEDSR>:

void loadLEDSR(void)
{
 8000af8:	b580      	push	{r7, lr}
 8000afa:	b082      	sub	sp, #8
 8000afc:	af00      	add	r7, sp, #0

	for (uint8_t i = 0; i < NUMBER_OF_LINES; i++) {
 8000afe:	1dfb      	adds	r3, r7, #7
 8000b00:	2200      	movs	r2, #0
 8000b02:	701a      	strb	r2, [r3, #0]
 8000b04:	e056      	b.n	8000bb4 <loadLEDSR+0xbc>
        HAL_GPIO_WritePin(LED_CALL_GREEN_SR_DATA_GPIO_Port,
        		LED_CALL_GREEN_SR_DATA_Pin, (g_u8LedCallGreenData & SR_DATA_bm));
 8000b06:	4b30      	ldr	r3, [pc, #192]	; (8000bc8 <loadLEDSR+0xd0>)
 8000b08:	781b      	ldrb	r3, [r3, #0]
 8000b0a:	2201      	movs	r2, #1
 8000b0c:	4013      	ands	r3, r2
 8000b0e:	b2da      	uxtb	r2, r3
        HAL_GPIO_WritePin(LED_CALL_GREEN_SR_DATA_GPIO_Port,
 8000b10:	2390      	movs	r3, #144	; 0x90
 8000b12:	05db      	lsls	r3, r3, #23
 8000b14:	2120      	movs	r1, #32
 8000b16:	0018      	movs	r0, r3
 8000b18:	f000 fc4d 	bl	80013b6 <HAL_GPIO_WritePin>
		HAL_GPIO_WritePin(LED_RESP_GREEN_SR_DATA_GPIO_Port,
				LED_RESP_GREEN_SR_DATA_Pin, (g_u8LedRespGreenData & SR_DATA_bm));
 8000b1c:	4b2b      	ldr	r3, [pc, #172]	; (8000bcc <loadLEDSR+0xd4>)
 8000b1e:	781b      	ldrb	r3, [r3, #0]
 8000b20:	2201      	movs	r2, #1
 8000b22:	4013      	ands	r3, r2
 8000b24:	b2da      	uxtb	r2, r3
		HAL_GPIO_WritePin(LED_RESP_GREEN_SR_DATA_GPIO_Port,
 8000b26:	2390      	movs	r3, #144	; 0x90
 8000b28:	05db      	lsls	r3, r3, #23
 8000b2a:	2108      	movs	r1, #8
 8000b2c:	0018      	movs	r0, r3
 8000b2e:	f000 fc42 	bl	80013b6 <HAL_GPIO_WritePin>
		HAL_GPIO_WritePin(LED_CALL_RED_SR_DATA_GPIO_Port,
				LED_CALL_RED_SR_DATA_Pin, (g_u8LedCallRedData & SR_DATA_bm));
 8000b32:	4b27      	ldr	r3, [pc, #156]	; (8000bd0 <loadLEDSR+0xd8>)
 8000b34:	781b      	ldrb	r3, [r3, #0]
 8000b36:	2201      	movs	r2, #1
 8000b38:	4013      	ands	r3, r2
 8000b3a:	b2da      	uxtb	r2, r3
		HAL_GPIO_WritePin(LED_CALL_RED_SR_DATA_GPIO_Port,
 8000b3c:	2390      	movs	r3, #144	; 0x90
 8000b3e:	05db      	lsls	r3, r3, #23
 8000b40:	2110      	movs	r1, #16
 8000b42:	0018      	movs	r0, r3
 8000b44:	f000 fc37 	bl	80013b6 <HAL_GPIO_WritePin>
		HAL_GPIO_WritePin(LED_RESP_RED_SR_DATA_GPIO_Port,
				LED_RESP_RED_SR_DATA_Pin, (g_u8LedRespRedData & SR_DATA_bm));
 8000b48:	4b22      	ldr	r3, [pc, #136]	; (8000bd4 <loadLEDSR+0xdc>)
 8000b4a:	781b      	ldrb	r3, [r3, #0]
 8000b4c:	2201      	movs	r2, #1
 8000b4e:	4013      	ands	r3, r2
 8000b50:	b2da      	uxtb	r2, r3
		HAL_GPIO_WritePin(LED_RESP_RED_SR_DATA_GPIO_Port,
 8000b52:	2390      	movs	r3, #144	; 0x90
 8000b54:	05db      	lsls	r3, r3, #23
 8000b56:	2104      	movs	r1, #4
 8000b58:	0018      	movs	r0, r3
 8000b5a:	f000 fc2c 	bl	80013b6 <HAL_GPIO_WritePin>

		HAL_GPIO_WritePin(STP_SR_LED_CLK_GPIO_Port, STP_SR_LED_CLK_Pin,
 8000b5e:	2390      	movs	r3, #144	; 0x90
 8000b60:	05db      	lsls	r3, r3, #23
 8000b62:	2201      	movs	r2, #1
 8000b64:	2180      	movs	r1, #128	; 0x80
 8000b66:	0018      	movs	r0, r3
 8000b68:	f000 fc25 	bl	80013b6 <HAL_GPIO_WritePin>
				GPIO_PIN_SET);
		HAL_GPIO_WritePin(STP_SR_LED_CLK_GPIO_Port, STP_SR_LED_CLK_Pin,
 8000b6c:	2390      	movs	r3, #144	; 0x90
 8000b6e:	05db      	lsls	r3, r3, #23
 8000b70:	2200      	movs	r2, #0
 8000b72:	2180      	movs	r1, #128	; 0x80
 8000b74:	0018      	movs	r0, r3
 8000b76:	f000 fc1e 	bl	80013b6 <HAL_GPIO_WritePin>
				GPIO_PIN_RESET);

		g_u8LedCallGreenData = g_u8LedCallGreenData >> 1;
 8000b7a:	4b13      	ldr	r3, [pc, #76]	; (8000bc8 <loadLEDSR+0xd0>)
 8000b7c:	781b      	ldrb	r3, [r3, #0]
 8000b7e:	085b      	lsrs	r3, r3, #1
 8000b80:	b2da      	uxtb	r2, r3
 8000b82:	4b11      	ldr	r3, [pc, #68]	; (8000bc8 <loadLEDSR+0xd0>)
 8000b84:	701a      	strb	r2, [r3, #0]
		g_u8LedRespGreenData = g_u8LedRespGreenData >> 1;
 8000b86:	4b11      	ldr	r3, [pc, #68]	; (8000bcc <loadLEDSR+0xd4>)
 8000b88:	781b      	ldrb	r3, [r3, #0]
 8000b8a:	085b      	lsrs	r3, r3, #1
 8000b8c:	b2da      	uxtb	r2, r3
 8000b8e:	4b0f      	ldr	r3, [pc, #60]	; (8000bcc <loadLEDSR+0xd4>)
 8000b90:	701a      	strb	r2, [r3, #0]
		g_u8LedCallRedData = g_u8LedCallRedData >> 1;
 8000b92:	4b0f      	ldr	r3, [pc, #60]	; (8000bd0 <loadLEDSR+0xd8>)
 8000b94:	781b      	ldrb	r3, [r3, #0]
 8000b96:	085b      	lsrs	r3, r3, #1
 8000b98:	b2da      	uxtb	r2, r3
 8000b9a:	4b0d      	ldr	r3, [pc, #52]	; (8000bd0 <loadLEDSR+0xd8>)
 8000b9c:	701a      	strb	r2, [r3, #0]
		g_u8LedRespRedData = g_u8LedRespRedData >> 1;
 8000b9e:	4b0d      	ldr	r3, [pc, #52]	; (8000bd4 <loadLEDSR+0xdc>)
 8000ba0:	781b      	ldrb	r3, [r3, #0]
 8000ba2:	085b      	lsrs	r3, r3, #1
 8000ba4:	b2da      	uxtb	r2, r3
 8000ba6:	4b0b      	ldr	r3, [pc, #44]	; (8000bd4 <loadLEDSR+0xdc>)
 8000ba8:	701a      	strb	r2, [r3, #0]
	for (uint8_t i = 0; i < NUMBER_OF_LINES; i++) {
 8000baa:	1dfb      	adds	r3, r7, #7
 8000bac:	781a      	ldrb	r2, [r3, #0]
 8000bae:	1dfb      	adds	r3, r7, #7
 8000bb0:	3201      	adds	r2, #1
 8000bb2:	701a      	strb	r2, [r3, #0]
 8000bb4:	1dfb      	adds	r3, r7, #7
 8000bb6:	781b      	ldrb	r3, [r3, #0]
 8000bb8:	2b07      	cmp	r3, #7
 8000bba:	d9a4      	bls.n	8000b06 <loadLEDSR+0xe>
	}
}
 8000bbc:	46c0      	nop			; (mov r8, r8)
 8000bbe:	46c0      	nop			; (mov r8, r8)
 8000bc0:	46bd      	mov	sp, r7
 8000bc2:	b002      	add	sp, #8
 8000bc4:	bd80      	pop	{r7, pc}
 8000bc6:	46c0      	nop			; (mov r8, r8)
 8000bc8:	200000dc 	.word	0x200000dc
 8000bcc:	200000dd 	.word	0x200000dd
 8000bd0:	200000de 	.word	0x200000de
 8000bd4:	200000df 	.word	0x200000df

08000bd8 <clearCallSR>:

void clearCallSR(void)
{
 8000bd8:	b580      	push	{r7, lr}
 8000bda:	af00      	add	r7, sp, #0
	HAL_GPIO_WritePin(LINE_CALL_SR_nCLR_GPIO_Port, LINE_CALL_SR_nCLR_Pin,
 8000bdc:	4b07      	ldr	r3, [pc, #28]	; (8000bfc <clearCallSR+0x24>)
 8000bde:	2200      	movs	r2, #0
 8000be0:	2120      	movs	r1, #32
 8000be2:	0018      	movs	r0, r3
 8000be4:	f000 fbe7 	bl	80013b6 <HAL_GPIO_WritePin>
			GPIO_PIN_RESET);
	HAL_GPIO_WritePin(LINE_CALL_SR_nCLR_GPIO_Port, LINE_CALL_SR_nCLR_Pin,
 8000be8:	4b04      	ldr	r3, [pc, #16]	; (8000bfc <clearCallSR+0x24>)
 8000bea:	2201      	movs	r2, #1
 8000bec:	2120      	movs	r1, #32
 8000bee:	0018      	movs	r0, r3
 8000bf0:	f000 fbe1 	bl	80013b6 <HAL_GPIO_WritePin>
			GPIO_PIN_SET);
}
 8000bf4:	46c0      	nop			; (mov r8, r8)
 8000bf6:	46bd      	mov	sp, r7
 8000bf8:	bd80      	pop	{r7, pc}
 8000bfa:	46c0      	nop			; (mov r8, r8)
 8000bfc:	48000400 	.word	0x48000400

08000c00 <HAL_TIM_PeriodElapsedCallback>:
//		ActiveRowColor = 0;
//	}
//}

void HAL_TIM_PeriodElapsedCallback(TIM_HandleTypeDef *htim)
{
 8000c00:	b580      	push	{r7, lr}
 8000c02:	b082      	sub	sp, #8
 8000c04:	af00      	add	r7, sp, #0
 8000c06:	6078      	str	r0, [r7, #4]

	if (htim == &htim3)
 8000c08:	687a      	ldr	r2, [r7, #4]
 8000c0a:	4b05      	ldr	r3, [pc, #20]	; (8000c20 <HAL_TIM_PeriodElapsedCallback+0x20>)
 8000c0c:	429a      	cmp	r2, r3
 8000c0e:	d102      	bne.n	8000c16 <HAL_TIM_PeriodElapsedCallback+0x16>
	{
		g_u8NeedToDisplayLedData = 1;
 8000c10:	4b04      	ldr	r3, [pc, #16]	; (8000c24 <HAL_TIM_PeriodElapsedCallback+0x24>)
 8000c12:	2201      	movs	r2, #1
 8000c14:	701a      	strb	r2, [r3, #0]
	{
		/**/


	}
}
 8000c16:	46c0      	nop			; (mov r8, r8)
 8000c18:	46bd      	mov	sp, r7
 8000c1a:	b002      	add	sp, #8
 8000c1c:	bd80      	pop	{r7, pc}
 8000c1e:	46c0      	nop			; (mov r8, r8)
 8000c20:	2000004c 	.word	0x2000004c
 8000c24:	20000002 	.word	0x20000002

08000c28 <Error_Handler>:
/**
  * @brief  This function is executed in case of error occurrence.
  * @retval None
  */
void Error_Handler(void)
{
 8000c28:	b580      	push	{r7, lr}
 8000c2a:	af00      	add	r7, sp, #0
  \details Disables IRQ interrupts by setting the I-bit in the CPSR.
           Can only be executed in Privileged modes.
 */
__STATIC_FORCEINLINE void __disable_irq(void)
{
  __ASM volatile ("cpsid i" : : : "memory");
 8000c2c:	b672      	cpsid	i
}
 8000c2e:	46c0      	nop			; (mov r8, r8)
  /* USER CODE BEGIN Error_Handler_Debug */
  /* User can add his own implementation to report the HAL error return state */
  __disable_irq();
  while (1)
 8000c30:	e7fe      	b.n	8000c30 <Error_Handler+0x8>
	...

08000c34 <HAL_MspInit>:
 8000c34:	b580      	push	{r7, lr}
 8000c36:	b082      	sub	sp, #8
 8000c38:	af00      	add	r7, sp, #0
 8000c3a:	4b0f      	ldr	r3, [pc, #60]	; (8000c78 <HAL_MspInit+0x44>)
 8000c3c:	699a      	ldr	r2, [r3, #24]
 8000c3e:	4b0e      	ldr	r3, [pc, #56]	; (8000c78 <HAL_MspInit+0x44>)
 8000c40:	2101      	movs	r1, #1
 8000c42:	430a      	orrs	r2, r1
 8000c44:	619a      	str	r2, [r3, #24]
 8000c46:	4b0c      	ldr	r3, [pc, #48]	; (8000c78 <HAL_MspInit+0x44>)
 8000c48:	699b      	ldr	r3, [r3, #24]
 8000c4a:	2201      	movs	r2, #1
 8000c4c:	4013      	ands	r3, r2
 8000c4e:	607b      	str	r3, [r7, #4]
 8000c50:	687b      	ldr	r3, [r7, #4]
 8000c52:	4b09      	ldr	r3, [pc, #36]	; (8000c78 <HAL_MspInit+0x44>)
 8000c54:	69da      	ldr	r2, [r3, #28]
 8000c56:	4b08      	ldr	r3, [pc, #32]	; (8000c78 <HAL_MspInit+0x44>)
 8000c58:	2180      	movs	r1, #128	; 0x80
 8000c5a:	0549      	lsls	r1, r1, #21
 8000c5c:	430a      	orrs	r2, r1
 8000c5e:	61da      	str	r2, [r3, #28]
 8000c60:	4b05      	ldr	r3, [pc, #20]	; (8000c78 <HAL_MspInit+0x44>)
 8000c62:	69da      	ldr	r2, [r3, #28]
 8000c64:	2380      	movs	r3, #128	; 0x80
 8000c66:	055b      	lsls	r3, r3, #21
 8000c68:	4013      	ands	r3, r2
 8000c6a:	603b      	str	r3, [r7, #0]
 8000c6c:	683b      	ldr	r3, [r7, #0]
 8000c6e:	46c0      	nop			; (mov r8, r8)
 8000c70:	46bd      	mov	sp, r7
 8000c72:	b002      	add	sp, #8
 8000c74:	bd80      	pop	{r7, pc}
 8000c76:	46c0      	nop			; (mov r8, r8)
 8000c78:	40021000 	.word	0x40021000

08000c7c <HAL_TIM_Base_MspInit>:
 8000c7c:	b580      	push	{r7, lr}
 8000c7e:	b084      	sub	sp, #16
 8000c80:	af00      	add	r7, sp, #0
 8000c82:	6078      	str	r0, [r7, #4]
 8000c84:	687b      	ldr	r3, [r7, #4]
 8000c86:	681b      	ldr	r3, [r3, #0]
 8000c88:	4a1a      	ldr	r2, [pc, #104]	; (8000cf4 <HAL_TIM_Base_MspInit+0x78>)
 8000c8a:	4293      	cmp	r3, r2
 8000c8c:	d114      	bne.n	8000cb8 <HAL_TIM_Base_MspInit+0x3c>
 8000c8e:	4b1a      	ldr	r3, [pc, #104]	; (8000cf8 <HAL_TIM_Base_MspInit+0x7c>)
 8000c90:	69da      	ldr	r2, [r3, #28]
 8000c92:	4b19      	ldr	r3, [pc, #100]	; (8000cf8 <HAL_TIM_Base_MspInit+0x7c>)
 8000c94:	2102      	movs	r1, #2
 8000c96:	430a      	orrs	r2, r1
 8000c98:	61da      	str	r2, [r3, #28]
 8000c9a:	4b17      	ldr	r3, [pc, #92]	; (8000cf8 <HAL_TIM_Base_MspInit+0x7c>)
 8000c9c:	69db      	ldr	r3, [r3, #28]
 8000c9e:	2202      	movs	r2, #2
 8000ca0:	4013      	ands	r3, r2
 8000ca2:	60fb      	str	r3, [r7, #12]
 8000ca4:	68fb      	ldr	r3, [r7, #12]
 8000ca6:	2200      	movs	r2, #0
 8000ca8:	2100      	movs	r1, #0
 8000caa:	2010      	movs	r0, #16
 8000cac:	f000 f9bc 	bl	8001028 <HAL_NVIC_SetPriority>
 8000cb0:	2010      	movs	r0, #16
 8000cb2:	f000 f9ce 	bl	8001052 <HAL_NVIC_EnableIRQ>
 8000cb6:	e018      	b.n	8000cea <HAL_TIM_Base_MspInit+0x6e>
 8000cb8:	687b      	ldr	r3, [r7, #4]
 8000cba:	681b      	ldr	r3, [r3, #0]
 8000cbc:	4a0f      	ldr	r2, [pc, #60]	; (8000cfc <HAL_TIM_Base_MspInit+0x80>)
 8000cbe:	4293      	cmp	r3, r2
 8000cc0:	d113      	bne.n	8000cea <HAL_TIM_Base_MspInit+0x6e>
 8000cc2:	4b0d      	ldr	r3, [pc, #52]	; (8000cf8 <HAL_TIM_Base_MspInit+0x7c>)
 8000cc4:	69da      	ldr	r2, [r3, #28]
 8000cc6:	4b0c      	ldr	r3, [pc, #48]	; (8000cf8 <HAL_TIM_Base_MspInit+0x7c>)
 8000cc8:	2110      	movs	r1, #16
 8000cca:	430a      	orrs	r2, r1
 8000ccc:	61da      	str	r2, [r3, #28]
 8000cce:	4b0a      	ldr	r3, [pc, #40]	; (8000cf8 <HAL_TIM_Base_MspInit+0x7c>)
 8000cd0:	69db      	ldr	r3, [r3, #28]
 8000cd2:	2210      	movs	r2, #16
 8000cd4:	4013      	ands	r3, r2
 8000cd6:	60bb      	str	r3, [r7, #8]
 8000cd8:	68bb      	ldr	r3, [r7, #8]
 8000cda:	2200      	movs	r2, #0
 8000cdc:	2100      	movs	r1, #0
 8000cde:	2011      	movs	r0, #17
 8000ce0:	f000 f9a2 	bl	8001028 <HAL_NVIC_SetPriority>
 8000ce4:	2011      	movs	r0, #17
 8000ce6:	f000 f9b4 	bl	8001052 <HAL_NVIC_EnableIRQ>
 8000cea:	46c0      	nop			; (mov r8, r8)
 8000cec:	46bd      	mov	sp, r7
 8000cee:	b004      	add	sp, #16
 8000cf0:	bd80      	pop	{r7, pc}
 8000cf2:	46c0      	nop			; (mov r8, r8)
 8000cf4:	40000400 	.word	0x40000400
 8000cf8:	40021000 	.word	0x40021000
 8000cfc:	40001000 	.word	0x40001000

08000d00 <NMI_Handler>:
 8000d00:	b580      	push	{r7, lr}
 8000d02:	af00      	add	r7, sp, #0
 8000d04:	e7fe      	b.n	8000d04 <NMI_Handler+0x4>

08000d06 <HardFault_Handler>:
 8000d06:	b580      	push	{r7, lr}
 8000d08:	af00      	add	r7, sp, #0
 8000d0a:	e7fe      	b.n	8000d0a <HardFault_Handler+0x4>

08000d0c <SVC_Handler>:
 8000d0c:	b580      	push	{r7, lr}
 8000d0e:	af00      	add	r7, sp, #0
 8000d10:	46c0      	nop			; (mov r8, r8)
 8000d12:	46bd      	mov	sp, r7
 8000d14:	bd80      	pop	{r7, pc}

08000d16 <PendSV_Handler>:
 8000d16:	b580      	push	{r7, lr}
 8000d18:	af00      	add	r7, sp, #0
 8000d1a:	46c0      	nop			; (mov r8, r8)
 8000d1c:	46bd      	mov	sp, r7
 8000d1e:	bd80      	pop	{r7, pc}

08000d20 <SysTick_Handler>:
 8000d20:	b580      	push	{r7, lr}
 8000d22:	af00      	add	r7, sp, #0
 8000d24:	f000 f894 	bl	8000e50 <HAL_IncTick>
 8000d28:	46c0      	nop			; (mov r8, r8)
 8000d2a:	46bd      	mov	sp, r7
 8000d2c:	bd80      	pop	{r7, pc}
	...

08000d30 <TIM3_IRQHandler>:
 8000d30:	b580      	push	{r7, lr}
 8000d32:	af00      	add	r7, sp, #0
 8000d34:	4b03      	ldr	r3, [pc, #12]	; (8000d44 <TIM3_IRQHandler+0x14>)
 8000d36:	0018      	movs	r0, r3
 8000d38:	f001 f8ee 	bl	8001f18 <HAL_TIM_IRQHandler>
 8000d3c:	46c0      	nop			; (mov r8, r8)
 8000d3e:	46bd      	mov	sp, r7
 8000d40:	bd80      	pop	{r7, pc}
 8000d42:	46c0      	nop			; (mov r8, r8)
 8000d44:	2000004c 	.word	0x2000004c

08000d48 <TIM6_DAC_IRQHandler>:
 8000d48:	b580      	push	{r7, lr}
 8000d4a:	af00      	add	r7, sp, #0
 8000d4c:	4b03      	ldr	r3, [pc, #12]	; (8000d5c <TIM6_DAC_IRQHandler+0x14>)
 8000d4e:	0018      	movs	r0, r3
 8000d50:	f001 f8e2 	bl	8001f18 <HAL_TIM_IRQHandler>
 8000d54:	46c0      	nop			; (mov r8, r8)
 8000d56:	46bd      	mov	sp, r7
 8000d58:	bd80      	pop	{r7, pc}
 8000d5a:	46c0      	nop			; (mov r8, r8)
 8000d5c:	20000094 	.word	0x20000094

08000d60 <SystemInit>:
 8000d60:	b580      	push	{r7, lr}
 8000d62:	af00      	add	r7, sp, #0
 8000d64:	46c0      	nop			; (mov r8, r8)
 8000d66:	46bd      	mov	sp, r7
 8000d68:	bd80      	pop	{r7, pc}
	...

08000d6c <Reset_Handler>:
 8000d6c:	480d      	ldr	r0, [pc, #52]	; (8000da4 <LoopForever+0x2>)
 8000d6e:	4685      	mov	sp, r0
 8000d70:	f7ff fff6 	bl	8000d60 <SystemInit>
 8000d74:	480c      	ldr	r0, [pc, #48]	; (8000da8 <LoopForever+0x6>)
 8000d76:	490d      	ldr	r1, [pc, #52]	; (8000dac <LoopForever+0xa>)
 8000d78:	4a0d      	ldr	r2, [pc, #52]	; (8000db0 <LoopForever+0xe>)
 8000d7a:	2300      	movs	r3, #0
 8000d7c:	e002      	b.n	8000d84 <LoopCopyDataInit>

08000d7e <CopyDataInit>:
 8000d7e:	58d4      	ldr	r4, [r2, r3]
 8000d80:	50c4      	str	r4, [r0, r3]
 8000d82:	3304      	adds	r3, #4

08000d84 <LoopCopyDataInit>:
 8000d84:	18c4      	adds	r4, r0, r3
 8000d86:	428c      	cmp	r4, r1
 8000d88:	d3f9      	bcc.n	8000d7e <CopyDataInit>
 8000d8a:	4a0a      	ldr	r2, [pc, #40]	; (8000db4 <LoopForever+0x12>)
 8000d8c:	4c0a      	ldr	r4, [pc, #40]	; (8000db8 <LoopForever+0x16>)
 8000d8e:	2300      	movs	r3, #0
 8000d90:	e001      	b.n	8000d96 <LoopFillZerobss>

08000d92 <FillZerobss>:
 8000d92:	6013      	str	r3, [r2, #0]
 8000d94:	3204      	adds	r2, #4

08000d96 <LoopFillZerobss>:
 8000d96:	42a2      	cmp	r2, r4
 8000d98:	d3fb      	bcc.n	8000d92 <FillZerobss>
 8000d9a:	f001 fc57 	bl	800264c <__libc_init_array>
 8000d9e:	f7ff fa3d 	bl	800021c <main>

08000da2 <LoopForever>:
 8000da2:	e7fe      	b.n	8000da2 <LoopForever>
 8000da4:	20008000 	.word	0x20008000
 8000da8:	20000000 	.word	0x20000000
 8000dac:	20000030 	.word	0x20000030
 8000db0:	080026ec 	.word	0x080026ec
 8000db4:	20000030 	.word	0x20000030
 8000db8:	2000013c 	.word	0x2000013c

08000dbc <ADC1_COMP_IRQHandler>:
 8000dbc:	e7fe      	b.n	8000dbc <ADC1_COMP_IRQHandler>
	...

08000dc0 <HAL_Init>:
 8000dc0:	b580      	push	{r7, lr}
 8000dc2:	af00      	add	r7, sp, #0
 8000dc4:	4b07      	ldr	r3, [pc, #28]	; (8000de4 <HAL_Init+0x24>)
 8000dc6:	681a      	ldr	r2, [r3, #0]
 8000dc8:	4b06      	ldr	r3, [pc, #24]	; (8000de4 <HAL_Init+0x24>)
 8000dca:	2110      	movs	r1, #16
 8000dcc:	430a      	orrs	r2, r1
 8000dce:	601a      	str	r2, [r3, #0]
 8000dd0:	2003      	movs	r0, #3
 8000dd2:	f000 f809 	bl	8000de8 <HAL_InitTick>
 8000dd6:	f7ff ff2d 	bl	8000c34 <HAL_MspInit>
 8000dda:	2300      	movs	r3, #0
 8000ddc:	0018      	movs	r0, r3
 8000dde:	46bd      	mov	sp, r7
 8000de0:	bd80      	pop	{r7, pc}
 8000de2:	46c0      	nop			; (mov r8, r8)
 8000de4:	40022000 	.word	0x40022000

08000de8 <HAL_InitTick>:
 8000de8:	b590      	push	{r4, r7, lr}
 8000dea:	b083      	sub	sp, #12
 8000dec:	af00      	add	r7, sp, #0
 8000dee:	6078      	str	r0, [r7, #4]
 8000df0:	4b14      	ldr	r3, [pc, #80]	; (8000e44 <HAL_InitTick+0x5c>)
 8000df2:	681c      	ldr	r4, [r3, #0]
 8000df4:	4b14      	ldr	r3, [pc, #80]	; (8000e48 <HAL_InitTick+0x60>)
 8000df6:	781b      	ldrb	r3, [r3, #0]
 8000df8:	0019      	movs	r1, r3
 8000dfa:	23fa      	movs	r3, #250	; 0xfa
 8000dfc:	0098      	lsls	r0, r3, #2
 8000dfe:	f7ff f981 	bl	8000104 <__udivsi3>
 8000e02:	0003      	movs	r3, r0
 8000e04:	0019      	movs	r1, r3
 8000e06:	0020      	movs	r0, r4
 8000e08:	f7ff f97c 	bl	8000104 <__udivsi3>
 8000e0c:	0003      	movs	r3, r0
 8000e0e:	0018      	movs	r0, r3
 8000e10:	f000 f92f 	bl	8001072 <HAL_SYSTICK_Config>
 8000e14:	1e03      	subs	r3, r0, #0
 8000e16:	d001      	beq.n	8000e1c <HAL_InitTick+0x34>
 8000e18:	2301      	movs	r3, #1
 8000e1a:	e00f      	b.n	8000e3c <HAL_InitTick+0x54>
 8000e1c:	687b      	ldr	r3, [r7, #4]
 8000e1e:	2b03      	cmp	r3, #3
 8000e20:	d80b      	bhi.n	8000e3a <HAL_InitTick+0x52>
 8000e22:	6879      	ldr	r1, [r7, #4]
 8000e24:	2301      	movs	r3, #1
 8000e26:	425b      	negs	r3, r3
 8000e28:	2200      	movs	r2, #0
 8000e2a:	0018      	movs	r0, r3
 8000e2c:	f000 f8fc 	bl	8001028 <HAL_NVIC_SetPriority>
 8000e30:	4b06      	ldr	r3, [pc, #24]	; (8000e4c <HAL_InitTick+0x64>)
 8000e32:	687a      	ldr	r2, [r7, #4]
 8000e34:	601a      	str	r2, [r3, #0]
 8000e36:	2300      	movs	r3, #0
 8000e38:	e000      	b.n	8000e3c <HAL_InitTick+0x54>
 8000e3a:	2301      	movs	r3, #1
 8000e3c:	0018      	movs	r0, r3
 8000e3e:	46bd      	mov	sp, r7
 8000e40:	b003      	add	sp, #12
 8000e42:	bd90      	pop	{r4, r7, pc}
 8000e44:	20000024 	.word	0x20000024
 8000e48:	2000002c 	.word	0x2000002c
 8000e4c:	20000028 	.word	0x20000028

08000e50 <HAL_IncTick>:
 8000e50:	b580      	push	{r7, lr}
 8000e52:	af00      	add	r7, sp, #0
 8000e54:	4b05      	ldr	r3, [pc, #20]	; (8000e6c <HAL_IncTick+0x1c>)
 8000e56:	781b      	ldrb	r3, [r3, #0]
 8000e58:	001a      	movs	r2, r3
 8000e5a:	4b05      	ldr	r3, [pc, #20]	; (8000e70 <HAL_IncTick+0x20>)
 8000e5c:	681b      	ldr	r3, [r3, #0]
 8000e5e:	18d2      	adds	r2, r2, r3
 8000e60:	4b03      	ldr	r3, [pc, #12]	; (8000e70 <HAL_IncTick+0x20>)
 8000e62:	601a      	str	r2, [r3, #0]
 8000e64:	46c0      	nop			; (mov r8, r8)
 8000e66:	46bd      	mov	sp, r7
 8000e68:	bd80      	pop	{r7, pc}
 8000e6a:	46c0      	nop			; (mov r8, r8)
 8000e6c:	2000002c 	.word	0x2000002c
 8000e70:	20000138 	.word	0x20000138

08000e74 <HAL_GetTick>:
 8000e74:	b580      	push	{r7, lr}
 8000e76:	af00      	add	r7, sp, #0
 8000e78:	4b02      	ldr	r3, [pc, #8]	; (8000e84 <HAL_GetTick+0x10>)
 8000e7a:	681b      	ldr	r3, [r3, #0]
 8000e7c:	0018      	movs	r0, r3
 8000e7e:	46bd      	mov	sp, r7
 8000e80:	bd80      	pop	{r7, pc}
 8000e82:	46c0      	nop			; (mov r8, r8)
 8000e84:	20000138 	.word	0x20000138

08000e88 <HAL_Delay>:
 8000e88:	b580      	push	{r7, lr}
 8000e8a:	b084      	sub	sp, #16
 8000e8c:	af00      	add	r7, sp, #0
 8000e8e:	6078      	str	r0, [r7, #4]
 8000e90:	f7ff fff0 	bl	8000e74 <HAL_GetTick>
 8000e94:	0003      	movs	r3, r0
 8000e96:	60bb      	str	r3, [r7, #8]
 8000e98:	687b      	ldr	r3, [r7, #4]
 8000e9a:	60fb      	str	r3, [r7, #12]
 8000e9c:	68fb      	ldr	r3, [r7, #12]
 8000e9e:	3301      	adds	r3, #1
 8000ea0:	d005      	beq.n	8000eae <HAL_Delay+0x26>
 8000ea2:	4b0a      	ldr	r3, [pc, #40]	; (8000ecc <HAL_Delay+0x44>)
 8000ea4:	781b      	ldrb	r3, [r3, #0]
 8000ea6:	001a      	movs	r2, r3
 8000ea8:	68fb      	ldr	r3, [r7, #12]
 8000eaa:	189b      	adds	r3, r3, r2
 8000eac:	60fb      	str	r3, [r7, #12]
 8000eae:	46c0      	nop			; (mov r8, r8)
 8000eb0:	f7ff ffe0 	bl	8000e74 <HAL_GetTick>
 8000eb4:	0002      	movs	r2, r0
 8000eb6:	68bb      	ldr	r3, [r7, #8]
 8000eb8:	1ad3      	subs	r3, r2, r3
 8000eba:	68fa      	ldr	r2, [r7, #12]
 8000ebc:	429a      	cmp	r2, r3
 8000ebe:	d8f7      	bhi.n	8000eb0 <HAL_Delay+0x28>
 8000ec0:	46c0      	nop			; (mov r8, r8)
 8000ec2:	46c0      	nop			; (mov r8, r8)
 8000ec4:	46bd      	mov	sp, r7
 8000ec6:	b004      	add	sp, #16
 8000ec8:	bd80      	pop	{r7, pc}
 8000eca:	46c0      	nop			; (mov r8, r8)
 8000ecc:	2000002c 	.word	0x2000002c

08000ed0 <__NVIC_EnableIRQ>:
 8000ed0:	b580      	push	{r7, lr}
 8000ed2:	b082      	sub	sp, #8
 8000ed4:	af00      	add	r7, sp, #0
 8000ed6:	0002      	movs	r2, r0
 8000ed8:	1dfb      	adds	r3, r7, #7
 8000eda:	701a      	strb	r2, [r3, #0]
 8000edc:	1dfb      	adds	r3, r7, #7
 8000ede:	781b      	ldrb	r3, [r3, #0]
 8000ee0:	2b7f      	cmp	r3, #127	; 0x7f
 8000ee2:	d809      	bhi.n	8000ef8 <__NVIC_EnableIRQ+0x28>
 8000ee4:	1dfb      	adds	r3, r7, #7
 8000ee6:	781b      	ldrb	r3, [r3, #0]
 8000ee8:	001a      	movs	r2, r3
 8000eea:	231f      	movs	r3, #31
 8000eec:	401a      	ands	r2, r3
 8000eee:	4b04      	ldr	r3, [pc, #16]	; (8000f00 <__NVIC_EnableIRQ+0x30>)
 8000ef0:	2101      	movs	r1, #1
 8000ef2:	4091      	lsls	r1, r2
 8000ef4:	000a      	movs	r2, r1
 8000ef6:	601a      	str	r2, [r3, #0]
 8000ef8:	46c0      	nop			; (mov r8, r8)
 8000efa:	46bd      	mov	sp, r7
 8000efc:	b002      	add	sp, #8
 8000efe:	bd80      	pop	{r7, pc}
 8000f00:	e000e100 	.word	0xe000e100

08000f04 <__NVIC_SetPriority>:
 8000f04:	b590      	push	{r4, r7, lr}
 8000f06:	b083      	sub	sp, #12
 8000f08:	af00      	add	r7, sp, #0
 8000f0a:	0002      	movs	r2, r0
 8000f0c:	6039      	str	r1, [r7, #0]
 8000f0e:	1dfb      	adds	r3, r7, #7
 8000f10:	701a      	strb	r2, [r3, #0]
 8000f12:	1dfb      	adds	r3, r7, #7
 8000f14:	781b      	ldrb	r3, [r3, #0]
 8000f16:	2b7f      	cmp	r3, #127	; 0x7f
 8000f18:	d828      	bhi.n	8000f6c <__NVIC_SetPriority+0x68>
 8000f1a:	4a2f      	ldr	r2, [pc, #188]	; (8000fd8 <__NVIC_SetPriority+0xd4>)
 8000f1c:	1dfb      	adds	r3, r7, #7
 8000f1e:	781b      	ldrb	r3, [r3, #0]
 8000f20:	b25b      	sxtb	r3, r3
 8000f22:	089b      	lsrs	r3, r3, #2
 8000f24:	33c0      	adds	r3, #192	; 0xc0
 8000f26:	009b      	lsls	r3, r3, #2
 8000f28:	589b      	ldr	r3, [r3, r2]
 8000f2a:	1dfa      	adds	r2, r7, #7
 8000f2c:	7812      	ldrb	r2, [r2, #0]
 8000f2e:	0011      	movs	r1, r2
 8000f30:	2203      	movs	r2, #3
 8000f32:	400a      	ands	r2, r1
 8000f34:	00d2      	lsls	r2, r2, #3
 8000f36:	21ff      	movs	r1, #255	; 0xff
 8000f38:	4091      	lsls	r1, r2
 8000f3a:	000a      	movs	r2, r1
 8000f3c:	43d2      	mvns	r2, r2
 8000f3e:	401a      	ands	r2, r3
 8000f40:	0011      	movs	r1, r2
 8000f42:	683b      	ldr	r3, [r7, #0]
 8000f44:	019b      	lsls	r3, r3, #6
 8000f46:	22ff      	movs	r2, #255	; 0xff
 8000f48:	401a      	ands	r2, r3
 8000f4a:	1dfb      	adds	r3, r7, #7
 8000f4c:	781b      	ldrb	r3, [r3, #0]
 8000f4e:	0018      	movs	r0, r3
 8000f50:	2303      	movs	r3, #3
 8000f52:	4003      	ands	r3, r0
 8000f54:	00db      	lsls	r3, r3, #3
 8000f56:	409a      	lsls	r2, r3
 8000f58:	481f      	ldr	r0, [pc, #124]	; (8000fd8 <__NVIC_SetPriority+0xd4>)
 8000f5a:	1dfb      	adds	r3, r7, #7
 8000f5c:	781b      	ldrb	r3, [r3, #0]
 8000f5e:	b25b      	sxtb	r3, r3
 8000f60:	089b      	lsrs	r3, r3, #2
 8000f62:	430a      	orrs	r2, r1
 8000f64:	33c0      	adds	r3, #192	; 0xc0
 8000f66:	009b      	lsls	r3, r3, #2
 8000f68:	501a      	str	r2, [r3, r0]
 8000f6a:	e031      	b.n	8000fd0 <__NVIC_SetPriority+0xcc>
 8000f6c:	4a1b      	ldr	r2, [pc, #108]	; (8000fdc <__NVIC_SetPriority+0xd8>)
 8000f6e:	1dfb      	adds	r3, r7, #7
 8000f70:	781b      	ldrb	r3, [r3, #0]
 8000f72:	0019      	movs	r1, r3
 8000f74:	230f      	movs	r3, #15
 8000f76:	400b      	ands	r3, r1
 8000f78:	3b08      	subs	r3, #8
 8000f7a:	089b      	lsrs	r3, r3, #2
 8000f7c:	3306      	adds	r3, #6
 8000f7e:	009b      	lsls	r3, r3, #2
 8000f80:	18d3      	adds	r3, r2, r3
 8000f82:	3304      	adds	r3, #4
 8000f84:	681b      	ldr	r3, [r3, #0]
 8000f86:	1dfa      	adds	r2, r7, #7
 8000f88:	7812      	ldrb	r2, [r2, #0]
 8000f8a:	0011      	movs	r1, r2
 8000f8c:	2203      	movs	r2, #3
 8000f8e:	400a      	ands	r2, r1
 8000f90:	00d2      	lsls	r2, r2, #3
 8000f92:	21ff      	movs	r1, #255	; 0xff
 8000f94:	4091      	lsls	r1, r2
 8000f96:	000a      	movs	r2, r1
 8000f98:	43d2      	mvns	r2, r2
 8000f9a:	401a      	ands	r2, r3
 8000f9c:	0011      	movs	r1, r2
 8000f9e:	683b      	ldr	r3, [r7, #0]
 8000fa0:	019b      	lsls	r3, r3, #6
 8000fa2:	22ff      	movs	r2, #255	; 0xff
 8000fa4:	401a      	ands	r2, r3
 8000fa6:	1dfb      	adds	r3, r7, #7
 8000fa8:	781b      	ldrb	r3, [r3, #0]
 8000faa:	0018      	movs	r0, r3
 8000fac:	2303      	movs	r3, #3
 8000fae:	4003      	ands	r3, r0
 8000fb0:	00db      	lsls	r3, r3, #3
 8000fb2:	409a      	lsls	r2, r3
 8000fb4:	4809      	ldr	r0, [pc, #36]	; (8000fdc <__NVIC_SetPriority+0xd8>)
 8000fb6:	1dfb      	adds	r3, r7, #7
 8000fb8:	781b      	ldrb	r3, [r3, #0]
 8000fba:	001c      	movs	r4, r3
 8000fbc:	230f      	movs	r3, #15
 8000fbe:	4023      	ands	r3, r4
 8000fc0:	3b08      	subs	r3, #8
 8000fc2:	089b      	lsrs	r3, r3, #2
 8000fc4:	430a      	orrs	r2, r1
 8000fc6:	3306      	adds	r3, #6
 8000fc8:	009b      	lsls	r3, r3, #2
 8000fca:	18c3      	adds	r3, r0, r3
 8000fcc:	3304      	adds	r3, #4
 8000fce:	601a      	str	r2, [r3, #0]
 8000fd0:	46c0      	nop			; (mov r8, r8)
 8000fd2:	46bd      	mov	sp, r7
 8000fd4:	b003      	add	sp, #12
 8000fd6:	bd90      	pop	{r4, r7, pc}
 8000fd8:	e000e100 	.word	0xe000e100
 8000fdc:	e000ed00 	.word	0xe000ed00

08000fe0 <SysTick_Config>:
 8000fe0:	b580      	push	{r7, lr}
 8000fe2:	b082      	sub	sp, #8
 8000fe4:	af00      	add	r7, sp, #0
 8000fe6:	6078      	str	r0, [r7, #4]
 8000fe8:	687b      	ldr	r3, [r7, #4]
 8000fea:	1e5a      	subs	r2, r3, #1
 8000fec:	2380      	movs	r3, #128	; 0x80
 8000fee:	045b      	lsls	r3, r3, #17
 8000ff0:	429a      	cmp	r2, r3
 8000ff2:	d301      	bcc.n	8000ff8 <SysTick_Config+0x18>
 8000ff4:	2301      	movs	r3, #1
 8000ff6:	e010      	b.n	800101a <SysTick_Config+0x3a>
 8000ff8:	4b0a      	ldr	r3, [pc, #40]	; (8001024 <SysTick_Config+0x44>)
 8000ffa:	687a      	ldr	r2, [r7, #4]
 8000ffc:	3a01      	subs	r2, #1
 8000ffe:	605a      	str	r2, [r3, #4]
 8001000:	2301      	movs	r3, #1
 8001002:	425b      	negs	r3, r3
 8001004:	2103      	movs	r1, #3
 8001006:	0018      	movs	r0, r3
 8001008:	f7ff ff7c 	bl	8000f04 <__NVIC_SetPriority>
 800100c:	4b05      	ldr	r3, [pc, #20]	; (8001024 <SysTick_Config+0x44>)
 800100e:	2200      	movs	r2, #0
 8001010:	609a      	str	r2, [r3, #8]
 8001012:	4b04      	ldr	r3, [pc, #16]	; (8001024 <SysTick_Config+0x44>)
 8001014:	2207      	movs	r2, #7
 8001016:	601a      	str	r2, [r3, #0]
 8001018:	2300      	movs	r3, #0
 800101a:	0018      	movs	r0, r3
 800101c:	46bd      	mov	sp, r7
 800101e:	b002      	add	sp, #8
 8001020:	bd80      	pop	{r7, pc}
 8001022:	46c0      	nop			; (mov r8, r8)
 8001024:	e000e010 	.word	0xe000e010

08001028 <HAL_NVIC_SetPriority>:
 8001028:	b580      	push	{r7, lr}
 800102a:	b084      	sub	sp, #16
 800102c:	af00      	add	r7, sp, #0
 800102e:	60b9      	str	r1, [r7, #8]
 8001030:	607a      	str	r2, [r7, #4]
 8001032:	210f      	movs	r1, #15
 8001034:	187b      	adds	r3, r7, r1
 8001036:	1c02      	adds	r2, r0, #0
 8001038:	701a      	strb	r2, [r3, #0]
 800103a:	68ba      	ldr	r2, [r7, #8]
 800103c:	187b      	adds	r3, r7, r1
 800103e:	781b      	ldrb	r3, [r3, #0]
 8001040:	b25b      	sxtb	r3, r3
 8001042:	0011      	movs	r1, r2
 8001044:	0018      	movs	r0, r3
 8001046:	f7ff ff5d 	bl	8000f04 <__NVIC_SetPriority>
 800104a:	46c0      	nop			; (mov r8, r8)
 800104c:	46bd      	mov	sp, r7
 800104e:	b004      	add	sp, #16
 8001050:	bd80      	pop	{r7, pc}

08001052 <HAL_NVIC_EnableIRQ>:
 8001052:	b580      	push	{r7, lr}
 8001054:	b082      	sub	sp, #8
 8001056:	af00      	add	r7, sp, #0
 8001058:	0002      	movs	r2, r0
 800105a:	1dfb      	adds	r3, r7, #7
 800105c:	701a      	strb	r2, [r3, #0]
 800105e:	1dfb      	adds	r3, r7, #7
 8001060:	781b      	ldrb	r3, [r3, #0]
 8001062:	b25b      	sxtb	r3, r3
 8001064:	0018      	movs	r0, r3
 8001066:	f7ff ff33 	bl	8000ed0 <__NVIC_EnableIRQ>
 800106a:	46c0      	nop			; (mov r8, r8)
 800106c:	46bd      	mov	sp, r7
 800106e:	b002      	add	sp, #8
 8001070:	bd80      	pop	{r7, pc}

08001072 <HAL_SYSTICK_Config>:
 8001072:	b580      	push	{r7, lr}
 8001074:	b082      	sub	sp, #8
 8001076:	af00      	add	r7, sp, #0
 8001078:	6078      	str	r0, [r7, #4]
 800107a:	687b      	ldr	r3, [r7, #4]
 800107c:	0018      	movs	r0, r3
 800107e:	f7ff ffaf 	bl	8000fe0 <SysTick_Config>
 8001082:	0003      	movs	r3, r0
 8001084:	0018      	movs	r0, r3
 8001086:	46bd      	mov	sp, r7
 8001088:	b002      	add	sp, #8
 800108a:	bd80      	pop	{r7, pc}

0800108c <HAL_GPIO_Init>:
 800108c:	b580      	push	{r7, lr}
 800108e:	b086      	sub	sp, #24
 8001090:	af00      	add	r7, sp, #0
 8001092:	6078      	str	r0, [r7, #4]
 8001094:	6039      	str	r1, [r7, #0]
 8001096:	2300      	movs	r3, #0
 8001098:	617b      	str	r3, [r7, #20]
 800109a:	e155      	b.n	8001348 <HAL_GPIO_Init+0x2bc>
 800109c:	683b      	ldr	r3, [r7, #0]
 800109e:	681b      	ldr	r3, [r3, #0]
 80010a0:	2101      	movs	r1, #1
 80010a2:	697a      	ldr	r2, [r7, #20]
 80010a4:	4091      	lsls	r1, r2
 80010a6:	000a      	movs	r2, r1
 80010a8:	4013      	ands	r3, r2
 80010aa:	60fb      	str	r3, [r7, #12]
 80010ac:	68fb      	ldr	r3, [r7, #12]
 80010ae:	2b00      	cmp	r3, #0
 80010b0:	d100      	bne.n	80010b4 <HAL_GPIO_Init+0x28>
 80010b2:	e146      	b.n	8001342 <HAL_GPIO_Init+0x2b6>
 80010b4:	683b      	ldr	r3, [r7, #0]
 80010b6:	685b      	ldr	r3, [r3, #4]
 80010b8:	2203      	movs	r2, #3
 80010ba:	4013      	ands	r3, r2
 80010bc:	2b01      	cmp	r3, #1
 80010be:	d005      	beq.n	80010cc <HAL_GPIO_Init+0x40>
 80010c0:	683b      	ldr	r3, [r7, #0]
 80010c2:	685b      	ldr	r3, [r3, #4]
 80010c4:	2203      	movs	r2, #3
 80010c6:	4013      	ands	r3, r2
 80010c8:	2b02      	cmp	r3, #2
 80010ca:	d130      	bne.n	800112e <HAL_GPIO_Init+0xa2>
 80010cc:	687b      	ldr	r3, [r7, #4]
 80010ce:	689b      	ldr	r3, [r3, #8]
 80010d0:	613b      	str	r3, [r7, #16]
 80010d2:	697b      	ldr	r3, [r7, #20]
 80010d4:	005b      	lsls	r3, r3, #1
 80010d6:	2203      	movs	r2, #3
 80010d8:	409a      	lsls	r2, r3
 80010da:	0013      	movs	r3, r2
 80010dc:	43da      	mvns	r2, r3
 80010de:	693b      	ldr	r3, [r7, #16]
 80010e0:	4013      	ands	r3, r2
 80010e2:	613b      	str	r3, [r7, #16]
 80010e4:	683b      	ldr	r3, [r7, #0]
 80010e6:	68da      	ldr	r2, [r3, #12]
 80010e8:	697b      	ldr	r3, [r7, #20]
 80010ea:	005b      	lsls	r3, r3, #1
 80010ec:	409a      	lsls	r2, r3
 80010ee:	0013      	movs	r3, r2
 80010f0:	693a      	ldr	r2, [r7, #16]
 80010f2:	4313      	orrs	r3, r2
 80010f4:	613b      	str	r3, [r7, #16]
 80010f6:	687b      	ldr	r3, [r7, #4]
 80010f8:	693a      	ldr	r2, [r7, #16]
 80010fa:	609a      	str	r2, [r3, #8]
 80010fc:	687b      	ldr	r3, [r7, #4]
 80010fe:	685b      	ldr	r3, [r3, #4]
 8001100:	613b      	str	r3, [r7, #16]
 8001102:	2201      	movs	r2, #1
 8001104:	697b      	ldr	r3, [r7, #20]
 8001106:	409a      	lsls	r2, r3
 8001108:	0013      	movs	r3, r2
 800110a:	43da      	mvns	r2, r3
 800110c:	693b      	ldr	r3, [r7, #16]
 800110e:	4013      	ands	r3, r2
 8001110:	613b      	str	r3, [r7, #16]
 8001112:	683b      	ldr	r3, [r7, #0]
 8001114:	685b      	ldr	r3, [r3, #4]
 8001116:	091b      	lsrs	r3, r3, #4
 8001118:	2201      	movs	r2, #1
 800111a:	401a      	ands	r2, r3
 800111c:	697b      	ldr	r3, [r7, #20]
 800111e:	409a      	lsls	r2, r3
 8001120:	0013      	movs	r3, r2
 8001122:	693a      	ldr	r2, [r7, #16]
 8001124:	4313      	orrs	r3, r2
 8001126:	613b      	str	r3, [r7, #16]
 8001128:	687b      	ldr	r3, [r7, #4]
 800112a:	693a      	ldr	r2, [r7, #16]
 800112c:	605a      	str	r2, [r3, #4]
 800112e:	683b      	ldr	r3, [r7, #0]
 8001130:	685b      	ldr	r3, [r3, #4]
 8001132:	2203      	movs	r2, #3
 8001134:	4013      	ands	r3, r2
 8001136:	2b03      	cmp	r3, #3
 8001138:	d017      	beq.n	800116a <HAL_GPIO_Init+0xde>
 800113a:	687b      	ldr	r3, [r7, #4]
 800113c:	68db      	ldr	r3, [r3, #12]
 800113e:	613b      	str	r3, [r7, #16]
 8001140:	697b      	ldr	r3, [r7, #20]
 8001142:	005b      	lsls	r3, r3, #1
 8001144:	2203      	movs	r2, #3
 8001146:	409a      	lsls	r2, r3
 8001148:	0013      	movs	r3, r2
 800114a:	43da      	mvns	r2, r3
 800114c:	693b      	ldr	r3, [r7, #16]
 800114e:	4013      	ands	r3, r2
 8001150:	613b      	str	r3, [r7, #16]
 8001152:	683b      	ldr	r3, [r7, #0]
 8001154:	689a      	ldr	r2, [r3, #8]
 8001156:	697b      	ldr	r3, [r7, #20]
 8001158:	005b      	lsls	r3, r3, #1
 800115a:	409a      	lsls	r2, r3
 800115c:	0013      	movs	r3, r2
 800115e:	693a      	ldr	r2, [r7, #16]
 8001160:	4313      	orrs	r3, r2
 8001162:	613b      	str	r3, [r7, #16]
 8001164:	687b      	ldr	r3, [r7, #4]
 8001166:	693a      	ldr	r2, [r7, #16]
 8001168:	60da      	str	r2, [r3, #12]
 800116a:	683b      	ldr	r3, [r7, #0]
 800116c:	685b      	ldr	r3, [r3, #4]
 800116e:	2203      	movs	r2, #3
 8001170:	4013      	ands	r3, r2
 8001172:	2b02      	cmp	r3, #2
 8001174:	d123      	bne.n	80011be <HAL_GPIO_Init+0x132>
 8001176:	697b      	ldr	r3, [r7, #20]
 8001178:	08da      	lsrs	r2, r3, #3
 800117a:	687b      	ldr	r3, [r7, #4]
 800117c:	3208      	adds	r2, #8
 800117e:	0092      	lsls	r2, r2, #2
 8001180:	58d3      	ldr	r3, [r2, r3]
 8001182:	613b      	str	r3, [r7, #16]
 8001184:	697b      	ldr	r3, [r7, #20]
 8001186:	2207      	movs	r2, #7
 8001188:	4013      	ands	r3, r2
 800118a:	009b      	lsls	r3, r3, #2
 800118c:	220f      	movs	r2, #15
 800118e:	409a      	lsls	r2, r3
 8001190:	0013      	movs	r3, r2
 8001192:	43da      	mvns	r2, r3
 8001194:	693b      	ldr	r3, [r7, #16]
 8001196:	4013      	ands	r3, r2
 8001198:	613b      	str	r3, [r7, #16]
 800119a:	683b      	ldr	r3, [r7, #0]
 800119c:	691a      	ldr	r2, [r3, #16]
 800119e:	697b      	ldr	r3, [r7, #20]
 80011a0:	2107      	movs	r1, #7
 80011a2:	400b      	ands	r3, r1
 80011a4:	009b      	lsls	r3, r3, #2
 80011a6:	409a      	lsls	r2, r3
 80011a8:	0013      	movs	r3, r2
 80011aa:	693a      	ldr	r2, [r7, #16]
 80011ac:	4313      	orrs	r3, r2
 80011ae:	613b      	str	r3, [r7, #16]
 80011b0:	697b      	ldr	r3, [r7, #20]
 80011b2:	08da      	lsrs	r2, r3, #3
 80011b4:	687b      	ldr	r3, [r7, #4]
 80011b6:	3208      	adds	r2, #8
 80011b8:	0092      	lsls	r2, r2, #2
 80011ba:	6939      	ldr	r1, [r7, #16]
 80011bc:	50d1      	str	r1, [r2, r3]
 80011be:	687b      	ldr	r3, [r7, #4]
 80011c0:	681b      	ldr	r3, [r3, #0]
 80011c2:	613b      	str	r3, [r7, #16]
 80011c4:	697b      	ldr	r3, [r7, #20]
 80011c6:	005b      	lsls	r3, r3, #1
 80011c8:	2203      	movs	r2, #3
 80011ca:	409a      	lsls	r2, r3
 80011cc:	0013      	movs	r3, r2
 80011ce:	43da      	mvns	r2, r3
 80011d0:	693b      	ldr	r3, [r7, #16]
 80011d2:	4013      	ands	r3, r2
 80011d4:	613b      	str	r3, [r7, #16]
 80011d6:	683b      	ldr	r3, [r7, #0]
 80011d8:	685b      	ldr	r3, [r3, #4]
 80011da:	2203      	movs	r2, #3
 80011dc:	401a      	ands	r2, r3
 80011de:	697b      	ldr	r3, [r7, #20]
 80011e0:	005b      	lsls	r3, r3, #1
 80011e2:	409a      	lsls	r2, r3
 80011e4:	0013      	movs	r3, r2
 80011e6:	693a      	ldr	r2, [r7, #16]
 80011e8:	4313      	orrs	r3, r2
 80011ea:	613b      	str	r3, [r7, #16]
 80011ec:	687b      	ldr	r3, [r7, #4]
 80011ee:	693a      	ldr	r2, [r7, #16]
 80011f0:	601a      	str	r2, [r3, #0]
 80011f2:	683b      	ldr	r3, [r7, #0]
 80011f4:	685a      	ldr	r2, [r3, #4]
 80011f6:	23c0      	movs	r3, #192	; 0xc0
 80011f8:	029b      	lsls	r3, r3, #10
 80011fa:	4013      	ands	r3, r2
 80011fc:	d100      	bne.n	8001200 <HAL_GPIO_Init+0x174>
 80011fe:	e0a0      	b.n	8001342 <HAL_GPIO_Init+0x2b6>
 8001200:	4b57      	ldr	r3, [pc, #348]	; (8001360 <HAL_GPIO_Init+0x2d4>)
 8001202:	699a      	ldr	r2, [r3, #24]
 8001204:	4b56      	ldr	r3, [pc, #344]	; (8001360 <HAL_GPIO_Init+0x2d4>)
 8001206:	2101      	movs	r1, #1
 8001208:	430a      	orrs	r2, r1
 800120a:	619a      	str	r2, [r3, #24]
 800120c:	4b54      	ldr	r3, [pc, #336]	; (8001360 <HAL_GPIO_Init+0x2d4>)
 800120e:	699b      	ldr	r3, [r3, #24]
 8001210:	2201      	movs	r2, #1
 8001212:	4013      	ands	r3, r2
 8001214:	60bb      	str	r3, [r7, #8]
 8001216:	68bb      	ldr	r3, [r7, #8]
 8001218:	4a52      	ldr	r2, [pc, #328]	; (8001364 <HAL_GPIO_Init+0x2d8>)
 800121a:	697b      	ldr	r3, [r7, #20]
 800121c:	089b      	lsrs	r3, r3, #2
 800121e:	3302      	adds	r3, #2
 8001220:	009b      	lsls	r3, r3, #2
 8001222:	589b      	ldr	r3, [r3, r2]
 8001224:	613b      	str	r3, [r7, #16]
 8001226:	697b      	ldr	r3, [r7, #20]
 8001228:	2203      	movs	r2, #3
 800122a:	4013      	ands	r3, r2
 800122c:	009b      	lsls	r3, r3, #2
 800122e:	220f      	movs	r2, #15
 8001230:	409a      	lsls	r2, r3
 8001232:	0013      	movs	r3, r2
 8001234:	43da      	mvns	r2, r3
 8001236:	693b      	ldr	r3, [r7, #16]
 8001238:	4013      	ands	r3, r2
 800123a:	613b      	str	r3, [r7, #16]
 800123c:	687a      	ldr	r2, [r7, #4]
 800123e:	2390      	movs	r3, #144	; 0x90
 8001240:	05db      	lsls	r3, r3, #23
 8001242:	429a      	cmp	r2, r3
 8001244:	d019      	beq.n	800127a <HAL_GPIO_Init+0x1ee>
 8001246:	687b      	ldr	r3, [r7, #4]
 8001248:	4a47      	ldr	r2, [pc, #284]	; (8001368 <HAL_GPIO_Init+0x2dc>)
 800124a:	4293      	cmp	r3, r2
 800124c:	d013      	beq.n	8001276 <HAL_GPIO_Init+0x1ea>
 800124e:	687b      	ldr	r3, [r7, #4]
 8001250:	4a46      	ldr	r2, [pc, #280]	; (800136c <HAL_GPIO_Init+0x2e0>)
 8001252:	4293      	cmp	r3, r2
 8001254:	d00d      	beq.n	8001272 <HAL_GPIO_Init+0x1e6>
 8001256:	687b      	ldr	r3, [r7, #4]
 8001258:	4a45      	ldr	r2, [pc, #276]	; (8001370 <HAL_GPIO_Init+0x2e4>)
 800125a:	4293      	cmp	r3, r2
 800125c:	d007      	beq.n	800126e <HAL_GPIO_Init+0x1e2>
 800125e:	687b      	ldr	r3, [r7, #4]
 8001260:	4a44      	ldr	r2, [pc, #272]	; (8001374 <HAL_GPIO_Init+0x2e8>)
 8001262:	4293      	cmp	r3, r2
 8001264:	d101      	bne.n	800126a <HAL_GPIO_Init+0x1de>
 8001266:	2304      	movs	r3, #4
 8001268:	e008      	b.n	800127c <HAL_GPIO_Init+0x1f0>
 800126a:	2305      	movs	r3, #5
 800126c:	e006      	b.n	800127c <HAL_GPIO_Init+0x1f0>
 800126e:	2303      	movs	r3, #3
 8001270:	e004      	b.n	800127c <HAL_GPIO_Init+0x1f0>
 8001272:	2302      	movs	r3, #2
 8001274:	e002      	b.n	800127c <HAL_GPIO_Init+0x1f0>
 8001276:	2301      	movs	r3, #1
 8001278:	e000      	b.n	800127c <HAL_GPIO_Init+0x1f0>
 800127a:	2300      	movs	r3, #0
 800127c:	697a      	ldr	r2, [r7, #20]
 800127e:	2103      	movs	r1, #3
 8001280:	400a      	ands	r2, r1
 8001282:	0092      	lsls	r2, r2, #2
 8001284:	4093      	lsls	r3, r2
 8001286:	693a      	ldr	r2, [r7, #16]
 8001288:	4313      	orrs	r3, r2
 800128a:	613b      	str	r3, [r7, #16]
 800128c:	4935      	ldr	r1, [pc, #212]	; (8001364 <HAL_GPIO_Init+0x2d8>)
 800128e:	697b      	ldr	r3, [r7, #20]
 8001290:	089b      	lsrs	r3, r3, #2
 8001292:	3302      	adds	r3, #2
 8001294:	009b      	lsls	r3, r3, #2
 8001296:	693a      	ldr	r2, [r7, #16]
 8001298:	505a      	str	r2, [r3, r1]
 800129a:	4b37      	ldr	r3, [pc, #220]	; (8001378 <HAL_GPIO_Init+0x2ec>)
 800129c:	689b      	ldr	r3, [r3, #8]
 800129e:	613b      	str	r3, [r7, #16]
 80012a0:	68fb      	ldr	r3, [r7, #12]
 80012a2:	43da      	mvns	r2, r3
 80012a4:	693b      	ldr	r3, [r7, #16]
 80012a6:	4013      	ands	r3, r2
 80012a8:	613b      	str	r3, [r7, #16]
 80012aa:	683b      	ldr	r3, [r7, #0]
 80012ac:	685a      	ldr	r2, [r3, #4]
 80012ae:	2380      	movs	r3, #128	; 0x80
 80012b0:	035b      	lsls	r3, r3, #13
 80012b2:	4013      	ands	r3, r2
 80012b4:	d003      	beq.n	80012be <HAL_GPIO_Init+0x232>
 80012b6:	693a      	ldr	r2, [r7, #16]
 80012b8:	68fb      	ldr	r3, [r7, #12]
 80012ba:	4313      	orrs	r3, r2
 80012bc:	613b      	str	r3, [r7, #16]
 80012be:	4b2e      	ldr	r3, [pc, #184]	; (8001378 <HAL_GPIO_Init+0x2ec>)
 80012c0:	693a      	ldr	r2, [r7, #16]
 80012c2:	609a      	str	r2, [r3, #8]
 80012c4:	4b2c      	ldr	r3, [pc, #176]	; (8001378 <HAL_GPIO_Init+0x2ec>)
 80012c6:	68db      	ldr	r3, [r3, #12]
 80012c8:	613b      	str	r3, [r7, #16]
 80012ca:	68fb      	ldr	r3, [r7, #12]
 80012cc:	43da      	mvns	r2, r3
 80012ce:	693b      	ldr	r3, [r7, #16]
 80012d0:	4013      	ands	r3, r2
 80012d2:	613b      	str	r3, [r7, #16]
 80012d4:	683b      	ldr	r3, [r7, #0]
 80012d6:	685a      	ldr	r2, [r3, #4]
 80012d8:	2380      	movs	r3, #128	; 0x80
 80012da:	039b      	lsls	r3, r3, #14
 80012dc:	4013      	ands	r3, r2
 80012de:	d003      	beq.n	80012e8 <HAL_GPIO_Init+0x25c>
 80012e0:	693a      	ldr	r2, [r7, #16]
 80012e2:	68fb      	ldr	r3, [r7, #12]
 80012e4:	4313      	orrs	r3, r2
 80012e6:	613b      	str	r3, [r7, #16]
 80012e8:	4b23      	ldr	r3, [pc, #140]	; (8001378 <HAL_GPIO_Init+0x2ec>)
 80012ea:	693a      	ldr	r2, [r7, #16]
 80012ec:	60da      	str	r2, [r3, #12]
 80012ee:	4b22      	ldr	r3, [pc, #136]	; (8001378 <HAL_GPIO_Init+0x2ec>)
 80012f0:	685b      	ldr	r3, [r3, #4]
 80012f2:	613b      	str	r3, [r7, #16]
 80012f4:	68fb      	ldr	r3, [r7, #12]
 80012f6:	43da      	mvns	r2, r3
 80012f8:	693b      	ldr	r3, [r7, #16]
 80012fa:	4013      	ands	r3, r2
 80012fc:	613b      	str	r3, [r7, #16]
 80012fe:	683b      	ldr	r3, [r7, #0]
 8001300:	685a      	ldr	r2, [r3, #4]
 8001302:	2380      	movs	r3, #128	; 0x80
 8001304:	029b      	lsls	r3, r3, #10
 8001306:	4013      	ands	r3, r2
 8001308:	d003      	beq.n	8001312 <HAL_GPIO_Init+0x286>
 800130a:	693a      	ldr	r2, [r7, #16]
 800130c:	68fb      	ldr	r3, [r7, #12]
 800130e:	4313      	orrs	r3, r2
 8001310:	613b      	str	r3, [r7, #16]
 8001312:	4b19      	ldr	r3, [pc, #100]	; (8001378 <HAL_GPIO_Init+0x2ec>)
 8001314:	693a      	ldr	r2, [r7, #16]
 8001316:	605a      	str	r2, [r3, #4]
 8001318:	4b17      	ldr	r3, [pc, #92]	; (8001378 <HAL_GPIO_Init+0x2ec>)
 800131a:	681b      	ldr	r3, [r3, #0]
 800131c:	613b      	str	r3, [r7, #16]
 800131e:	68fb      	ldr	r3, [r7, #12]
 8001320:	43da      	mvns	r2, r3
 8001322:	693b      	ldr	r3, [r7, #16]
 8001324:	4013      	ands	r3, r2
 8001326:	613b      	str	r3, [r7, #16]
 8001328:	683b      	ldr	r3, [r7, #0]
 800132a:	685a      	ldr	r2, [r3, #4]
 800132c:	2380      	movs	r3, #128	; 0x80
 800132e:	025b      	lsls	r3, r3, #9
 8001330:	4013      	ands	r3, r2
 8001332:	d003      	beq.n	800133c <HAL_GPIO_Init+0x2b0>
 8001334:	693a      	ldr	r2, [r7, #16]
 8001336:	68fb      	ldr	r3, [r7, #12]
 8001338:	4313      	orrs	r3, r2
 800133a:	613b      	str	r3, [r7, #16]
 800133c:	4b0e      	ldr	r3, [pc, #56]	; (8001378 <HAL_GPIO_Init+0x2ec>)
 800133e:	693a      	ldr	r2, [r7, #16]
 8001340:	601a      	str	r2, [r3, #0]
 8001342:	697b      	ldr	r3, [r7, #20]
 8001344:	3301      	adds	r3, #1
 8001346:	617b      	str	r3, [r7, #20]
 8001348:	683b      	ldr	r3, [r7, #0]
 800134a:	681a      	ldr	r2, [r3, #0]
 800134c:	697b      	ldr	r3, [r7, #20]
 800134e:	40da      	lsrs	r2, r3
 8001350:	1e13      	subs	r3, r2, #0
 8001352:	d000      	beq.n	8001356 <HAL_GPIO_Init+0x2ca>
 8001354:	e6a2      	b.n	800109c <HAL_GPIO_Init+0x10>
 8001356:	46c0      	nop			; (mov r8, r8)
 8001358:	46c0      	nop			; (mov r8, r8)
 800135a:	46bd      	mov	sp, r7
 800135c:	b006      	add	sp, #24
 800135e:	bd80      	pop	{r7, pc}
 8001360:	40021000 	.word	0x40021000
 8001364:	40010000 	.word	0x40010000
 8001368:	48000400 	.word	0x48000400
 800136c:	48000800 	.word	0x48000800
 8001370:	48000c00 	.word	0x48000c00
 8001374:	48001000 	.word	0x48001000
 8001378:	40010400 	.word	0x40010400

0800137c <HAL_GPIO_ReadPin>:
 800137c:	b580      	push	{r7, lr}
 800137e:	b084      	sub	sp, #16
 8001380:	af00      	add	r7, sp, #0
 8001382:	6078      	str	r0, [r7, #4]
 8001384:	000a      	movs	r2, r1
 8001386:	1cbb      	adds	r3, r7, #2
 8001388:	801a      	strh	r2, [r3, #0]
 800138a:	687b      	ldr	r3, [r7, #4]
 800138c:	691b      	ldr	r3, [r3, #16]
 800138e:	1cba      	adds	r2, r7, #2
 8001390:	8812      	ldrh	r2, [r2, #0]
 8001392:	4013      	ands	r3, r2
 8001394:	d004      	beq.n	80013a0 <HAL_GPIO_ReadPin+0x24>
 8001396:	230f      	movs	r3, #15
 8001398:	18fb      	adds	r3, r7, r3
 800139a:	2201      	movs	r2, #1
 800139c:	701a      	strb	r2, [r3, #0]
 800139e:	e003      	b.n	80013a8 <HAL_GPIO_ReadPin+0x2c>
 80013a0:	230f      	movs	r3, #15
 80013a2:	18fb      	adds	r3, r7, r3
 80013a4:	2200      	movs	r2, #0
 80013a6:	701a      	strb	r2, [r3, #0]
 80013a8:	230f      	movs	r3, #15
 80013aa:	18fb      	adds	r3, r7, r3
 80013ac:	781b      	ldrb	r3, [r3, #0]
 80013ae:	0018      	movs	r0, r3
 80013b0:	46bd      	mov	sp, r7
 80013b2:	b004      	add	sp, #16
 80013b4:	bd80      	pop	{r7, pc}

080013b6 <HAL_GPIO_WritePin>:
 80013b6:	b580      	push	{r7, lr}
 80013b8:	b082      	sub	sp, #8
 80013ba:	af00      	add	r7, sp, #0
 80013bc:	6078      	str	r0, [r7, #4]
 80013be:	0008      	movs	r0, r1
 80013c0:	0011      	movs	r1, r2
 80013c2:	1cbb      	adds	r3, r7, #2
 80013c4:	1c02      	adds	r2, r0, #0
 80013c6:	801a      	strh	r2, [r3, #0]
 80013c8:	1c7b      	adds	r3, r7, #1
 80013ca:	1c0a      	adds	r2, r1, #0
 80013cc:	701a      	strb	r2, [r3, #0]
 80013ce:	1c7b      	adds	r3, r7, #1
 80013d0:	781b      	ldrb	r3, [r3, #0]
 80013d2:	2b00      	cmp	r3, #0
 80013d4:	d004      	beq.n	80013e0 <HAL_GPIO_WritePin+0x2a>
 80013d6:	1cbb      	adds	r3, r7, #2
 80013d8:	881a      	ldrh	r2, [r3, #0]
 80013da:	687b      	ldr	r3, [r7, #4]
 80013dc:	619a      	str	r2, [r3, #24]
 80013de:	e003      	b.n	80013e8 <HAL_GPIO_WritePin+0x32>
 80013e0:	1cbb      	adds	r3, r7, #2
 80013e2:	881a      	ldrh	r2, [r3, #0]
 80013e4:	687b      	ldr	r3, [r7, #4]
 80013e6:	629a      	str	r2, [r3, #40]	; 0x28
 80013e8:	46c0      	nop			; (mov r8, r8)
 80013ea:	46bd      	mov	sp, r7
 80013ec:	b002      	add	sp, #8
 80013ee:	bd80      	pop	{r7, pc}

080013f0 <HAL_RCC_OscConfig>:
 80013f0:	b580      	push	{r7, lr}
 80013f2:	b088      	sub	sp, #32
 80013f4:	af00      	add	r7, sp, #0
 80013f6:	6078      	str	r0, [r7, #4]
 80013f8:	687b      	ldr	r3, [r7, #4]
 80013fa:	2b00      	cmp	r3, #0
 80013fc:	d102      	bne.n	8001404 <HAL_RCC_OscConfig+0x14>
 80013fe:	2301      	movs	r3, #1
 8001400:	f000 fb76 	bl	8001af0 <HAL_RCC_OscConfig+0x700>
 8001404:	687b      	ldr	r3, [r7, #4]
 8001406:	681b      	ldr	r3, [r3, #0]
 8001408:	2201      	movs	r2, #1
 800140a:	4013      	ands	r3, r2
 800140c:	d100      	bne.n	8001410 <HAL_RCC_OscConfig+0x20>
 800140e:	e08e      	b.n	800152e <HAL_RCC_OscConfig+0x13e>
 8001410:	4bc5      	ldr	r3, [pc, #788]	; (8001728 <HAL_RCC_OscConfig+0x338>)
 8001412:	685b      	ldr	r3, [r3, #4]
 8001414:	220c      	movs	r2, #12
 8001416:	4013      	ands	r3, r2
 8001418:	2b04      	cmp	r3, #4
 800141a:	d00e      	beq.n	800143a <HAL_RCC_OscConfig+0x4a>
 800141c:	4bc2      	ldr	r3, [pc, #776]	; (8001728 <HAL_RCC_OscConfig+0x338>)
 800141e:	685b      	ldr	r3, [r3, #4]
 8001420:	220c      	movs	r2, #12
 8001422:	4013      	ands	r3, r2
 8001424:	2b08      	cmp	r3, #8
 8001426:	d117      	bne.n	8001458 <HAL_RCC_OscConfig+0x68>
 8001428:	4bbf      	ldr	r3, [pc, #764]	; (8001728 <HAL_RCC_OscConfig+0x338>)
 800142a:	685a      	ldr	r2, [r3, #4]
 800142c:	23c0      	movs	r3, #192	; 0xc0
 800142e:	025b      	lsls	r3, r3, #9
 8001430:	401a      	ands	r2, r3
 8001432:	2380      	movs	r3, #128	; 0x80
 8001434:	025b      	lsls	r3, r3, #9
 8001436:	429a      	cmp	r2, r3
 8001438:	d10e      	bne.n	8001458 <HAL_RCC_OscConfig+0x68>
 800143a:	4bbb      	ldr	r3, [pc, #748]	; (8001728 <HAL_RCC_OscConfig+0x338>)
 800143c:	681a      	ldr	r2, [r3, #0]
 800143e:	2380      	movs	r3, #128	; 0x80
 8001440:	029b      	lsls	r3, r3, #10
 8001442:	4013      	ands	r3, r2
 8001444:	d100      	bne.n	8001448 <HAL_RCC_OscConfig+0x58>
 8001446:	e071      	b.n	800152c <HAL_RCC_OscConfig+0x13c>
 8001448:	687b      	ldr	r3, [r7, #4]
 800144a:	685b      	ldr	r3, [r3, #4]
 800144c:	2b00      	cmp	r3, #0
 800144e:	d000      	beq.n	8001452 <HAL_RCC_OscConfig+0x62>
 8001450:	e06c      	b.n	800152c <HAL_RCC_OscConfig+0x13c>
 8001452:	2301      	movs	r3, #1
 8001454:	f000 fb4c 	bl	8001af0 <HAL_RCC_OscConfig+0x700>
 8001458:	687b      	ldr	r3, [r7, #4]
 800145a:	685b      	ldr	r3, [r3, #4]
 800145c:	2b01      	cmp	r3, #1
 800145e:	d107      	bne.n	8001470 <HAL_RCC_OscConfig+0x80>
 8001460:	4bb1      	ldr	r3, [pc, #708]	; (8001728 <HAL_RCC_OscConfig+0x338>)
 8001462:	681a      	ldr	r2, [r3, #0]
 8001464:	4bb0      	ldr	r3, [pc, #704]	; (8001728 <HAL_RCC_OscConfig+0x338>)
 8001466:	2180      	movs	r1, #128	; 0x80
 8001468:	0249      	lsls	r1, r1, #9
 800146a:	430a      	orrs	r2, r1
 800146c:	601a      	str	r2, [r3, #0]
 800146e:	e02f      	b.n	80014d0 <HAL_RCC_OscConfig+0xe0>
 8001470:	687b      	ldr	r3, [r7, #4]
 8001472:	685b      	ldr	r3, [r3, #4]
 8001474:	2b00      	cmp	r3, #0
 8001476:	d10c      	bne.n	8001492 <HAL_RCC_OscConfig+0xa2>
 8001478:	4bab      	ldr	r3, [pc, #684]	; (8001728 <HAL_RCC_OscConfig+0x338>)
 800147a:	681a      	ldr	r2, [r3, #0]
 800147c:	4baa      	ldr	r3, [pc, #680]	; (8001728 <HAL_RCC_OscConfig+0x338>)
 800147e:	49ab      	ldr	r1, [pc, #684]	; (800172c <HAL_RCC_OscConfig+0x33c>)
 8001480:	400a      	ands	r2, r1
 8001482:	601a      	str	r2, [r3, #0]
 8001484:	4ba8      	ldr	r3, [pc, #672]	; (8001728 <HAL_RCC_OscConfig+0x338>)
 8001486:	681a      	ldr	r2, [r3, #0]
 8001488:	4ba7      	ldr	r3, [pc, #668]	; (8001728 <HAL_RCC_OscConfig+0x338>)
 800148a:	49a9      	ldr	r1, [pc, #676]	; (8001730 <HAL_RCC_OscConfig+0x340>)
 800148c:	400a      	ands	r2, r1
 800148e:	601a      	str	r2, [r3, #0]
 8001490:	e01e      	b.n	80014d0 <HAL_RCC_OscConfig+0xe0>
 8001492:	687b      	ldr	r3, [r7, #4]
 8001494:	685b      	ldr	r3, [r3, #4]
 8001496:	2b05      	cmp	r3, #5
 8001498:	d10e      	bne.n	80014b8 <HAL_RCC_OscConfig+0xc8>
 800149a:	4ba3      	ldr	r3, [pc, #652]	; (8001728 <HAL_RCC_OscConfig+0x338>)
 800149c:	681a      	ldr	r2, [r3, #0]
 800149e:	4ba2      	ldr	r3, [pc, #648]	; (8001728 <HAL_RCC_OscConfig+0x338>)
 80014a0:	2180      	movs	r1, #128	; 0x80
 80014a2:	02c9      	lsls	r1, r1, #11
 80014a4:	430a      	orrs	r2, r1
 80014a6:	601a      	str	r2, [r3, #0]
 80014a8:	4b9f      	ldr	r3, [pc, #636]	; (8001728 <HAL_RCC_OscConfig+0x338>)
 80014aa:	681a      	ldr	r2, [r3, #0]
 80014ac:	4b9e      	ldr	r3, [pc, #632]	; (8001728 <HAL_RCC_OscConfig+0x338>)
 80014ae:	2180      	movs	r1, #128	; 0x80
 80014b0:	0249      	lsls	r1, r1, #9
 80014b2:	430a      	orrs	r2, r1
 80014b4:	601a      	str	r2, [r3, #0]
 80014b6:	e00b      	b.n	80014d0 <HAL_RCC_OscConfig+0xe0>
 80014b8:	4b9b      	ldr	r3, [pc, #620]	; (8001728 <HAL_RCC_OscConfig+0x338>)
 80014ba:	681a      	ldr	r2, [r3, #0]
 80014bc:	4b9a      	ldr	r3, [pc, #616]	; (8001728 <HAL_RCC_OscConfig+0x338>)
 80014be:	499b      	ldr	r1, [pc, #620]	; (800172c <HAL_RCC_OscConfig+0x33c>)
 80014c0:	400a      	ands	r2, r1
 80014c2:	601a      	str	r2, [r3, #0]
 80014c4:	4b98      	ldr	r3, [pc, #608]	; (8001728 <HAL_RCC_OscConfig+0x338>)
 80014c6:	681a      	ldr	r2, [r3, #0]
 80014c8:	4b97      	ldr	r3, [pc, #604]	; (8001728 <HAL_RCC_OscConfig+0x338>)
 80014ca:	4999      	ldr	r1, [pc, #612]	; (8001730 <HAL_RCC_OscConfig+0x340>)
 80014cc:	400a      	ands	r2, r1
 80014ce:	601a      	str	r2, [r3, #0]
 80014d0:	687b      	ldr	r3, [r7, #4]
 80014d2:	685b      	ldr	r3, [r3, #4]
 80014d4:	2b00      	cmp	r3, #0
 80014d6:	d014      	beq.n	8001502 <HAL_RCC_OscConfig+0x112>
 80014d8:	f7ff fccc 	bl	8000e74 <HAL_GetTick>
 80014dc:	0003      	movs	r3, r0
 80014de:	61bb      	str	r3, [r7, #24]
 80014e0:	e008      	b.n	80014f4 <HAL_RCC_OscConfig+0x104>
 80014e2:	f7ff fcc7 	bl	8000e74 <HAL_GetTick>
 80014e6:	0002      	movs	r2, r0
 80014e8:	69bb      	ldr	r3, [r7, #24]
 80014ea:	1ad3      	subs	r3, r2, r3
 80014ec:	2b64      	cmp	r3, #100	; 0x64
 80014ee:	d901      	bls.n	80014f4 <HAL_RCC_OscConfig+0x104>
 80014f0:	2303      	movs	r3, #3
 80014f2:	e2fd      	b.n	8001af0 <HAL_RCC_OscConfig+0x700>
 80014f4:	4b8c      	ldr	r3, [pc, #560]	; (8001728 <HAL_RCC_OscConfig+0x338>)
 80014f6:	681a      	ldr	r2, [r3, #0]
 80014f8:	2380      	movs	r3, #128	; 0x80
 80014fa:	029b      	lsls	r3, r3, #10
 80014fc:	4013      	ands	r3, r2
 80014fe:	d0f0      	beq.n	80014e2 <HAL_RCC_OscConfig+0xf2>
 8001500:	e015      	b.n	800152e <HAL_RCC_OscConfig+0x13e>
 8001502:	f7ff fcb7 	bl	8000e74 <HAL_GetTick>
 8001506:	0003      	movs	r3, r0
 8001508:	61bb      	str	r3, [r7, #24]
 800150a:	e008      	b.n	800151e <HAL_RCC_OscConfig+0x12e>
 800150c:	f7ff fcb2 	bl	8000e74 <HAL_GetTick>
 8001510:	0002      	movs	r2, r0
 8001512:	69bb      	ldr	r3, [r7, #24]
 8001514:	1ad3      	subs	r3, r2, r3
 8001516:	2b64      	cmp	r3, #100	; 0x64
 8001518:	d901      	bls.n	800151e <HAL_RCC_OscConfig+0x12e>
 800151a:	2303      	movs	r3, #3
 800151c:	e2e8      	b.n	8001af0 <HAL_RCC_OscConfig+0x700>
 800151e:	4b82      	ldr	r3, [pc, #520]	; (8001728 <HAL_RCC_OscConfig+0x338>)
 8001520:	681a      	ldr	r2, [r3, #0]
 8001522:	2380      	movs	r3, #128	; 0x80
 8001524:	029b      	lsls	r3, r3, #10
 8001526:	4013      	ands	r3, r2
 8001528:	d1f0      	bne.n	800150c <HAL_RCC_OscConfig+0x11c>
 800152a:	e000      	b.n	800152e <HAL_RCC_OscConfig+0x13e>
 800152c:	46c0      	nop			; (mov r8, r8)
 800152e:	687b      	ldr	r3, [r7, #4]
 8001530:	681b      	ldr	r3, [r3, #0]
 8001532:	2202      	movs	r2, #2
 8001534:	4013      	ands	r3, r2
 8001536:	d100      	bne.n	800153a <HAL_RCC_OscConfig+0x14a>
 8001538:	e06c      	b.n	8001614 <HAL_RCC_OscConfig+0x224>
 800153a:	4b7b      	ldr	r3, [pc, #492]	; (8001728 <HAL_RCC_OscConfig+0x338>)
 800153c:	685b      	ldr	r3, [r3, #4]
 800153e:	220c      	movs	r2, #12
 8001540:	4013      	ands	r3, r2
 8001542:	d00e      	beq.n	8001562 <HAL_RCC_OscConfig+0x172>
 8001544:	4b78      	ldr	r3, [pc, #480]	; (8001728 <HAL_RCC_OscConfig+0x338>)
 8001546:	685b      	ldr	r3, [r3, #4]
 8001548:	220c      	movs	r2, #12
 800154a:	4013      	ands	r3, r2
 800154c:	2b08      	cmp	r3, #8
 800154e:	d11f      	bne.n	8001590 <HAL_RCC_OscConfig+0x1a0>
 8001550:	4b75      	ldr	r3, [pc, #468]	; (8001728 <HAL_RCC_OscConfig+0x338>)
 8001552:	685a      	ldr	r2, [r3, #4]
 8001554:	23c0      	movs	r3, #192	; 0xc0
 8001556:	025b      	lsls	r3, r3, #9
 8001558:	401a      	ands	r2, r3
 800155a:	2380      	movs	r3, #128	; 0x80
 800155c:	021b      	lsls	r3, r3, #8
 800155e:	429a      	cmp	r2, r3
 8001560:	d116      	bne.n	8001590 <HAL_RCC_OscConfig+0x1a0>
 8001562:	4b71      	ldr	r3, [pc, #452]	; (8001728 <HAL_RCC_OscConfig+0x338>)
 8001564:	681b      	ldr	r3, [r3, #0]
 8001566:	2202      	movs	r2, #2
 8001568:	4013      	ands	r3, r2
 800156a:	d005      	beq.n	8001578 <HAL_RCC_OscConfig+0x188>
 800156c:	687b      	ldr	r3, [r7, #4]
 800156e:	68db      	ldr	r3, [r3, #12]
 8001570:	2b01      	cmp	r3, #1
 8001572:	d001      	beq.n	8001578 <HAL_RCC_OscConfig+0x188>
 8001574:	2301      	movs	r3, #1
 8001576:	e2bb      	b.n	8001af0 <HAL_RCC_OscConfig+0x700>
 8001578:	4b6b      	ldr	r3, [pc, #428]	; (8001728 <HAL_RCC_OscConfig+0x338>)
 800157a:	681b      	ldr	r3, [r3, #0]
 800157c:	22f8      	movs	r2, #248	; 0xf8
 800157e:	4393      	bics	r3, r2
 8001580:	0019      	movs	r1, r3
 8001582:	687b      	ldr	r3, [r7, #4]
 8001584:	691b      	ldr	r3, [r3, #16]
 8001586:	00da      	lsls	r2, r3, #3
 8001588:	4b67      	ldr	r3, [pc, #412]	; (8001728 <HAL_RCC_OscConfig+0x338>)
 800158a:	430a      	orrs	r2, r1
 800158c:	601a      	str	r2, [r3, #0]
 800158e:	e041      	b.n	8001614 <HAL_RCC_OscConfig+0x224>
 8001590:	687b      	ldr	r3, [r7, #4]
 8001592:	68db      	ldr	r3, [r3, #12]
 8001594:	2b00      	cmp	r3, #0
 8001596:	d024      	beq.n	80015e2 <HAL_RCC_OscConfig+0x1f2>
 8001598:	4b63      	ldr	r3, [pc, #396]	; (8001728 <HAL_RCC_OscConfig+0x338>)
 800159a:	681a      	ldr	r2, [r3, #0]
 800159c:	4b62      	ldr	r3, [pc, #392]	; (8001728 <HAL_RCC_OscConfig+0x338>)
 800159e:	2101      	movs	r1, #1
 80015a0:	430a      	orrs	r2, r1
 80015a2:	601a      	str	r2, [r3, #0]
 80015a4:	f7ff fc66 	bl	8000e74 <HAL_GetTick>
 80015a8:	0003      	movs	r3, r0
 80015aa:	61bb      	str	r3, [r7, #24]
 80015ac:	e008      	b.n	80015c0 <HAL_RCC_OscConfig+0x1d0>
 80015ae:	f7ff fc61 	bl	8000e74 <HAL_GetTick>
 80015b2:	0002      	movs	r2, r0
 80015b4:	69bb      	ldr	r3, [r7, #24]
 80015b6:	1ad3      	subs	r3, r2, r3
 80015b8:	2b02      	cmp	r3, #2
 80015ba:	d901      	bls.n	80015c0 <HAL_RCC_OscConfig+0x1d0>
 80015bc:	2303      	movs	r3, #3
 80015be:	e297      	b.n	8001af0 <HAL_RCC_OscConfig+0x700>
 80015c0:	4b59      	ldr	r3, [pc, #356]	; (8001728 <HAL_RCC_OscConfig+0x338>)
 80015c2:	681b      	ldr	r3, [r3, #0]
 80015c4:	2202      	movs	r2, #2
 80015c6:	4013      	ands	r3, r2
 80015c8:	d0f1      	beq.n	80015ae <HAL_RCC_OscConfig+0x1be>
 80015ca:	4b57      	ldr	r3, [pc, #348]	; (8001728 <HAL_RCC_OscConfig+0x338>)
 80015cc:	681b      	ldr	r3, [r3, #0]
 80015ce:	22f8      	movs	r2, #248	; 0xf8
 80015d0:	4393      	bics	r3, r2
 80015d2:	0019      	movs	r1, r3
 80015d4:	687b      	ldr	r3, [r7, #4]
 80015d6:	691b      	ldr	r3, [r3, #16]
 80015d8:	00da      	lsls	r2, r3, #3
 80015da:	4b53      	ldr	r3, [pc, #332]	; (8001728 <HAL_RCC_OscConfig+0x338>)
 80015dc:	430a      	orrs	r2, r1
 80015de:	601a      	str	r2, [r3, #0]
 80015e0:	e018      	b.n	8001614 <HAL_RCC_OscConfig+0x224>
 80015e2:	4b51      	ldr	r3, [pc, #324]	; (8001728 <HAL_RCC_OscConfig+0x338>)
 80015e4:	681a      	ldr	r2, [r3, #0]
 80015e6:	4b50      	ldr	r3, [pc, #320]	; (8001728 <HAL_RCC_OscConfig+0x338>)
 80015e8:	2101      	movs	r1, #1
 80015ea:	438a      	bics	r2, r1
 80015ec:	601a      	str	r2, [r3, #0]
 80015ee:	f7ff fc41 	bl	8000e74 <HAL_GetTick>
 80015f2:	0003      	movs	r3, r0
 80015f4:	61bb      	str	r3, [r7, #24]
 80015f6:	e008      	b.n	800160a <HAL_RCC_OscConfig+0x21a>
 80015f8:	f7ff fc3c 	bl	8000e74 <HAL_GetTick>
 80015fc:	0002      	movs	r2, r0
 80015fe:	69bb      	ldr	r3, [r7, #24]
 8001600:	1ad3      	subs	r3, r2, r3
 8001602:	2b02      	cmp	r3, #2
 8001604:	d901      	bls.n	800160a <HAL_RCC_OscConfig+0x21a>
 8001606:	2303      	movs	r3, #3
 8001608:	e272      	b.n	8001af0 <HAL_RCC_OscConfig+0x700>
 800160a:	4b47      	ldr	r3, [pc, #284]	; (8001728 <HAL_RCC_OscConfig+0x338>)
 800160c:	681b      	ldr	r3, [r3, #0]
 800160e:	2202      	movs	r2, #2
 8001610:	4013      	ands	r3, r2
 8001612:	d1f1      	bne.n	80015f8 <HAL_RCC_OscConfig+0x208>
 8001614:	687b      	ldr	r3, [r7, #4]
 8001616:	681b      	ldr	r3, [r3, #0]
 8001618:	2208      	movs	r2, #8
 800161a:	4013      	ands	r3, r2
 800161c:	d036      	beq.n	800168c <HAL_RCC_OscConfig+0x29c>
 800161e:	687b      	ldr	r3, [r7, #4]
 8001620:	69db      	ldr	r3, [r3, #28]
 8001622:	2b00      	cmp	r3, #0
 8001624:	d019      	beq.n	800165a <HAL_RCC_OscConfig+0x26a>
 8001626:	4b40      	ldr	r3, [pc, #256]	; (8001728 <HAL_RCC_OscConfig+0x338>)
 8001628:	6a5a      	ldr	r2, [r3, #36]	; 0x24
 800162a:	4b3f      	ldr	r3, [pc, #252]	; (8001728 <HAL_RCC_OscConfig+0x338>)
 800162c:	2101      	movs	r1, #1
 800162e:	430a      	orrs	r2, r1
 8001630:	625a      	str	r2, [r3, #36]	; 0x24
 8001632:	f7ff fc1f 	bl	8000e74 <HAL_GetTick>
 8001636:	0003      	movs	r3, r0
 8001638:	61bb      	str	r3, [r7, #24]
 800163a:	e008      	b.n	800164e <HAL_RCC_OscConfig+0x25e>
 800163c:	f7ff fc1a 	bl	8000e74 <HAL_GetTick>
 8001640:	0002      	movs	r2, r0
 8001642:	69bb      	ldr	r3, [r7, #24]
 8001644:	1ad3      	subs	r3, r2, r3
 8001646:	2b02      	cmp	r3, #2
 8001648:	d901      	bls.n	800164e <HAL_RCC_OscConfig+0x25e>
 800164a:	2303      	movs	r3, #3
 800164c:	e250      	b.n	8001af0 <HAL_RCC_OscConfig+0x700>
 800164e:	4b36      	ldr	r3, [pc, #216]	; (8001728 <HAL_RCC_OscConfig+0x338>)
 8001650:	6a5b      	ldr	r3, [r3, #36]	; 0x24
 8001652:	2202      	movs	r2, #2
 8001654:	4013      	ands	r3, r2
 8001656:	d0f1      	beq.n	800163c <HAL_RCC_OscConfig+0x24c>
 8001658:	e018      	b.n	800168c <HAL_RCC_OscConfig+0x29c>
 800165a:	4b33      	ldr	r3, [pc, #204]	; (8001728 <HAL_RCC_OscConfig+0x338>)
 800165c:	6a5a      	ldr	r2, [r3, #36]	; 0x24
 800165e:	4b32      	ldr	r3, [pc, #200]	; (8001728 <HAL_RCC_OscConfig+0x338>)
 8001660:	2101      	movs	r1, #1
 8001662:	438a      	bics	r2, r1
 8001664:	625a      	str	r2, [r3, #36]	; 0x24
 8001666:	f7ff fc05 	bl	8000e74 <HAL_GetTick>
 800166a:	0003      	movs	r3, r0
 800166c:	61bb      	str	r3, [r7, #24]
 800166e:	e008      	b.n	8001682 <HAL_RCC_OscConfig+0x292>
 8001670:	f7ff fc00 	bl	8000e74 <HAL_GetTick>
 8001674:	0002      	movs	r2, r0
 8001676:	69bb      	ldr	r3, [r7, #24]
 8001678:	1ad3      	subs	r3, r2, r3
 800167a:	2b02      	cmp	r3, #2
 800167c:	d901      	bls.n	8001682 <HAL_RCC_OscConfig+0x292>
 800167e:	2303      	movs	r3, #3
 8001680:	e236      	b.n	8001af0 <HAL_RCC_OscConfig+0x700>
 8001682:	4b29      	ldr	r3, [pc, #164]	; (8001728 <HAL_RCC_OscConfig+0x338>)
 8001684:	6a5b      	ldr	r3, [r3, #36]	; 0x24
 8001686:	2202      	movs	r2, #2
 8001688:	4013      	ands	r3, r2
 800168a:	d1f1      	bne.n	8001670 <HAL_RCC_OscConfig+0x280>
 800168c:	687b      	ldr	r3, [r7, #4]
 800168e:	681b      	ldr	r3, [r3, #0]
 8001690:	2204      	movs	r2, #4
 8001692:	4013      	ands	r3, r2
 8001694:	d100      	bne.n	8001698 <HAL_RCC_OscConfig+0x2a8>
 8001696:	e0b5      	b.n	8001804 <HAL_RCC_OscConfig+0x414>
 8001698:	201f      	movs	r0, #31
 800169a:	183b      	adds	r3, r7, r0
 800169c:	2200      	movs	r2, #0
 800169e:	701a      	strb	r2, [r3, #0]
 80016a0:	4b21      	ldr	r3, [pc, #132]	; (8001728 <HAL_RCC_OscConfig+0x338>)
 80016a2:	69da      	ldr	r2, [r3, #28]
 80016a4:	2380      	movs	r3, #128	; 0x80
 80016a6:	055b      	lsls	r3, r3, #21
 80016a8:	4013      	ands	r3, r2
 80016aa:	d110      	bne.n	80016ce <HAL_RCC_OscConfig+0x2de>
 80016ac:	4b1e      	ldr	r3, [pc, #120]	; (8001728 <HAL_RCC_OscConfig+0x338>)
 80016ae:	69da      	ldr	r2, [r3, #28]
 80016b0:	4b1d      	ldr	r3, [pc, #116]	; (8001728 <HAL_RCC_OscConfig+0x338>)
 80016b2:	2180      	movs	r1, #128	; 0x80
 80016b4:	0549      	lsls	r1, r1, #21
 80016b6:	430a      	orrs	r2, r1
 80016b8:	61da      	str	r2, [r3, #28]
 80016ba:	4b1b      	ldr	r3, [pc, #108]	; (8001728 <HAL_RCC_OscConfig+0x338>)
 80016bc:	69da      	ldr	r2, [r3, #28]
 80016be:	2380      	movs	r3, #128	; 0x80
 80016c0:	055b      	lsls	r3, r3, #21
 80016c2:	4013      	ands	r3, r2
 80016c4:	60fb      	str	r3, [r7, #12]
 80016c6:	68fb      	ldr	r3, [r7, #12]
 80016c8:	183b      	adds	r3, r7, r0
 80016ca:	2201      	movs	r2, #1
 80016cc:	701a      	strb	r2, [r3, #0]
 80016ce:	4b19      	ldr	r3, [pc, #100]	; (8001734 <HAL_RCC_OscConfig+0x344>)
 80016d0:	681a      	ldr	r2, [r3, #0]
 80016d2:	2380      	movs	r3, #128	; 0x80
 80016d4:	005b      	lsls	r3, r3, #1
 80016d6:	4013      	ands	r3, r2
 80016d8:	d11a      	bne.n	8001710 <HAL_RCC_OscConfig+0x320>
 80016da:	4b16      	ldr	r3, [pc, #88]	; (8001734 <HAL_RCC_OscConfig+0x344>)
 80016dc:	681a      	ldr	r2, [r3, #0]
 80016de:	4b15      	ldr	r3, [pc, #84]	; (8001734 <HAL_RCC_OscConfig+0x344>)
 80016e0:	2180      	movs	r1, #128	; 0x80
 80016e2:	0049      	lsls	r1, r1, #1
 80016e4:	430a      	orrs	r2, r1
 80016e6:	601a      	str	r2, [r3, #0]
 80016e8:	f7ff fbc4 	bl	8000e74 <HAL_GetTick>
 80016ec:	0003      	movs	r3, r0
 80016ee:	61bb      	str	r3, [r7, #24]
 80016f0:	e008      	b.n	8001704 <HAL_RCC_OscConfig+0x314>
 80016f2:	f7ff fbbf 	bl	8000e74 <HAL_GetTick>
 80016f6:	0002      	movs	r2, r0
 80016f8:	69bb      	ldr	r3, [r7, #24]
 80016fa:	1ad3      	subs	r3, r2, r3
 80016fc:	2b64      	cmp	r3, #100	; 0x64
 80016fe:	d901      	bls.n	8001704 <HAL_RCC_OscConfig+0x314>
 8001700:	2303      	movs	r3, #3
 8001702:	e1f5      	b.n	8001af0 <HAL_RCC_OscConfig+0x700>
 8001704:	4b0b      	ldr	r3, [pc, #44]	; (8001734 <HAL_RCC_OscConfig+0x344>)
 8001706:	681a      	ldr	r2, [r3, #0]
 8001708:	2380      	movs	r3, #128	; 0x80
 800170a:	005b      	lsls	r3, r3, #1
 800170c:	4013      	ands	r3, r2
 800170e:	d0f0      	beq.n	80016f2 <HAL_RCC_OscConfig+0x302>
 8001710:	687b      	ldr	r3, [r7, #4]
 8001712:	689b      	ldr	r3, [r3, #8]
 8001714:	2b01      	cmp	r3, #1
 8001716:	d10f      	bne.n	8001738 <HAL_RCC_OscConfig+0x348>
 8001718:	4b03      	ldr	r3, [pc, #12]	; (8001728 <HAL_RCC_OscConfig+0x338>)
 800171a:	6a1a      	ldr	r2, [r3, #32]
 800171c:	4b02      	ldr	r3, [pc, #8]	; (8001728 <HAL_RCC_OscConfig+0x338>)
 800171e:	2101      	movs	r1, #1
 8001720:	430a      	orrs	r2, r1
 8001722:	621a      	str	r2, [r3, #32]
 8001724:	e036      	b.n	8001794 <HAL_RCC_OscConfig+0x3a4>
 8001726:	46c0      	nop			; (mov r8, r8)
 8001728:	40021000 	.word	0x40021000
 800172c:	fffeffff 	.word	0xfffeffff
 8001730:	fffbffff 	.word	0xfffbffff
 8001734:	40007000 	.word	0x40007000
 8001738:	687b      	ldr	r3, [r7, #4]
 800173a:	689b      	ldr	r3, [r3, #8]
 800173c:	2b00      	cmp	r3, #0
 800173e:	d10c      	bne.n	800175a <HAL_RCC_OscConfig+0x36a>
 8001740:	4bca      	ldr	r3, [pc, #808]	; (8001a6c <HAL_RCC_OscConfig+0x67c>)
 8001742:	6a1a      	ldr	r2, [r3, #32]
 8001744:	4bc9      	ldr	r3, [pc, #804]	; (8001a6c <HAL_RCC_OscConfig+0x67c>)
 8001746:	2101      	movs	r1, #1
 8001748:	438a      	bics	r2, r1
 800174a:	621a      	str	r2, [r3, #32]
 800174c:	4bc7      	ldr	r3, [pc, #796]	; (8001a6c <HAL_RCC_OscConfig+0x67c>)
 800174e:	6a1a      	ldr	r2, [r3, #32]
 8001750:	4bc6      	ldr	r3, [pc, #792]	; (8001a6c <HAL_RCC_OscConfig+0x67c>)
 8001752:	2104      	movs	r1, #4
 8001754:	438a      	bics	r2, r1
 8001756:	621a      	str	r2, [r3, #32]
 8001758:	e01c      	b.n	8001794 <HAL_RCC_OscConfig+0x3a4>
 800175a:	687b      	ldr	r3, [r7, #4]
 800175c:	689b      	ldr	r3, [r3, #8]
 800175e:	2b05      	cmp	r3, #5
 8001760:	d10c      	bne.n	800177c <HAL_RCC_OscConfig+0x38c>
 8001762:	4bc2      	ldr	r3, [pc, #776]	; (8001a6c <HAL_RCC_OscConfig+0x67c>)
 8001764:	6a1a      	ldr	r2, [r3, #32]
 8001766:	4bc1      	ldr	r3, [pc, #772]	; (8001a6c <HAL_RCC_OscConfig+0x67c>)
 8001768:	2104      	movs	r1, #4
 800176a:	430a      	orrs	r2, r1
 800176c:	621a      	str	r2, [r3, #32]
 800176e:	4bbf      	ldr	r3, [pc, #764]	; (8001a6c <HAL_RCC_OscConfig+0x67c>)
 8001770:	6a1a      	ldr	r2, [r3, #32]
 8001772:	4bbe      	ldr	r3, [pc, #760]	; (8001a6c <HAL_RCC_OscConfig+0x67c>)
 8001774:	2101      	movs	r1, #1
 8001776:	430a      	orrs	r2, r1
 8001778:	621a      	str	r2, [r3, #32]
 800177a:	e00b      	b.n	8001794 <HAL_RCC_OscConfig+0x3a4>
 800177c:	4bbb      	ldr	r3, [pc, #748]	; (8001a6c <HAL_RCC_OscConfig+0x67c>)
 800177e:	6a1a      	ldr	r2, [r3, #32]
 8001780:	4bba      	ldr	r3, [pc, #744]	; (8001a6c <HAL_RCC_OscConfig+0x67c>)
 8001782:	2101      	movs	r1, #1
 8001784:	438a      	bics	r2, r1
 8001786:	621a      	str	r2, [r3, #32]
 8001788:	4bb8      	ldr	r3, [pc, #736]	; (8001a6c <HAL_RCC_OscConfig+0x67c>)
 800178a:	6a1a      	ldr	r2, [r3, #32]
 800178c:	4bb7      	ldr	r3, [pc, #732]	; (8001a6c <HAL_RCC_OscConfig+0x67c>)
 800178e:	2104      	movs	r1, #4
 8001790:	438a      	bics	r2, r1
 8001792:	621a      	str	r2, [r3, #32]
 8001794:	687b      	ldr	r3, [r7, #4]
 8001796:	689b      	ldr	r3, [r3, #8]
 8001798:	2b00      	cmp	r3, #0
 800179a:	d014      	beq.n	80017c6 <HAL_RCC_OscConfig+0x3d6>
 800179c:	f7ff fb6a 	bl	8000e74 <HAL_GetTick>
 80017a0:	0003      	movs	r3, r0
 80017a2:	61bb      	str	r3, [r7, #24]
 80017a4:	e009      	b.n	80017ba <HAL_RCC_OscConfig+0x3ca>
 80017a6:	f7ff fb65 	bl	8000e74 <HAL_GetTick>
 80017aa:	0002      	movs	r2, r0
 80017ac:	69bb      	ldr	r3, [r7, #24]
 80017ae:	1ad3      	subs	r3, r2, r3
 80017b0:	4aaf      	ldr	r2, [pc, #700]	; (8001a70 <HAL_RCC_OscConfig+0x680>)
 80017b2:	4293      	cmp	r3, r2
 80017b4:	d901      	bls.n	80017ba <HAL_RCC_OscConfig+0x3ca>
 80017b6:	2303      	movs	r3, #3
 80017b8:	e19a      	b.n	8001af0 <HAL_RCC_OscConfig+0x700>
 80017ba:	4bac      	ldr	r3, [pc, #688]	; (8001a6c <HAL_RCC_OscConfig+0x67c>)
 80017bc:	6a1b      	ldr	r3, [r3, #32]
 80017be:	2202      	movs	r2, #2
 80017c0:	4013      	ands	r3, r2
 80017c2:	d0f0      	beq.n	80017a6 <HAL_RCC_OscConfig+0x3b6>
 80017c4:	e013      	b.n	80017ee <HAL_RCC_OscConfig+0x3fe>
 80017c6:	f7ff fb55 	bl	8000e74 <HAL_GetTick>
 80017ca:	0003      	movs	r3, r0
 80017cc:	61bb      	str	r3, [r7, #24]
 80017ce:	e009      	b.n	80017e4 <HAL_RCC_OscConfig+0x3f4>
 80017d0:	f7ff fb50 	bl	8000e74 <HAL_GetTick>
 80017d4:	0002      	movs	r2, r0
 80017d6:	69bb      	ldr	r3, [r7, #24]
 80017d8:	1ad3      	subs	r3, r2, r3
 80017da:	4aa5      	ldr	r2, [pc, #660]	; (8001a70 <HAL_RCC_OscConfig+0x680>)
 80017dc:	4293      	cmp	r3, r2
 80017de:	d901      	bls.n	80017e4 <HAL_RCC_OscConfig+0x3f4>
 80017e0:	2303      	movs	r3, #3
 80017e2:	e185      	b.n	8001af0 <HAL_RCC_OscConfig+0x700>
 80017e4:	4ba1      	ldr	r3, [pc, #644]	; (8001a6c <HAL_RCC_OscConfig+0x67c>)
 80017e6:	6a1b      	ldr	r3, [r3, #32]
 80017e8:	2202      	movs	r2, #2
 80017ea:	4013      	ands	r3, r2
 80017ec:	d1f0      	bne.n	80017d0 <HAL_RCC_OscConfig+0x3e0>
 80017ee:	231f      	movs	r3, #31
 80017f0:	18fb      	adds	r3, r7, r3
 80017f2:	781b      	ldrb	r3, [r3, #0]
 80017f4:	2b01      	cmp	r3, #1
 80017f6:	d105      	bne.n	8001804 <HAL_RCC_OscConfig+0x414>
 80017f8:	4b9c      	ldr	r3, [pc, #624]	; (8001a6c <HAL_RCC_OscConfig+0x67c>)
 80017fa:	69da      	ldr	r2, [r3, #28]
 80017fc:	4b9b      	ldr	r3, [pc, #620]	; (8001a6c <HAL_RCC_OscConfig+0x67c>)
 80017fe:	499d      	ldr	r1, [pc, #628]	; (8001a74 <HAL_RCC_OscConfig+0x684>)
 8001800:	400a      	ands	r2, r1
 8001802:	61da      	str	r2, [r3, #28]
 8001804:	687b      	ldr	r3, [r7, #4]
 8001806:	681b      	ldr	r3, [r3, #0]
 8001808:	2210      	movs	r2, #16
 800180a:	4013      	ands	r3, r2
 800180c:	d063      	beq.n	80018d6 <HAL_RCC_OscConfig+0x4e6>
 800180e:	687b      	ldr	r3, [r7, #4]
 8001810:	695b      	ldr	r3, [r3, #20]
 8001812:	2b01      	cmp	r3, #1
 8001814:	d12a      	bne.n	800186c <HAL_RCC_OscConfig+0x47c>
 8001816:	4b95      	ldr	r3, [pc, #596]	; (8001a6c <HAL_RCC_OscConfig+0x67c>)
 8001818:	6b5a      	ldr	r2, [r3, #52]	; 0x34
 800181a:	4b94      	ldr	r3, [pc, #592]	; (8001a6c <HAL_RCC_OscConfig+0x67c>)
 800181c:	2104      	movs	r1, #4
 800181e:	430a      	orrs	r2, r1
 8001820:	635a      	str	r2, [r3, #52]	; 0x34
 8001822:	4b92      	ldr	r3, [pc, #584]	; (8001a6c <HAL_RCC_OscConfig+0x67c>)
 8001824:	6b5a      	ldr	r2, [r3, #52]	; 0x34
 8001826:	4b91      	ldr	r3, [pc, #580]	; (8001a6c <HAL_RCC_OscConfig+0x67c>)
 8001828:	2101      	movs	r1, #1
 800182a:	430a      	orrs	r2, r1
 800182c:	635a      	str	r2, [r3, #52]	; 0x34
 800182e:	f7ff fb21 	bl	8000e74 <HAL_GetTick>
 8001832:	0003      	movs	r3, r0
 8001834:	61bb      	str	r3, [r7, #24]
 8001836:	e008      	b.n	800184a <HAL_RCC_OscConfig+0x45a>
 8001838:	f7ff fb1c 	bl	8000e74 <HAL_GetTick>
 800183c:	0002      	movs	r2, r0
 800183e:	69bb      	ldr	r3, [r7, #24]
 8001840:	1ad3      	subs	r3, r2, r3
 8001842:	2b02      	cmp	r3, #2
 8001844:	d901      	bls.n	800184a <HAL_RCC_OscConfig+0x45a>
 8001846:	2303      	movs	r3, #3
 8001848:	e152      	b.n	8001af0 <HAL_RCC_OscConfig+0x700>
 800184a:	4b88      	ldr	r3, [pc, #544]	; (8001a6c <HAL_RCC_OscConfig+0x67c>)
 800184c:	6b5b      	ldr	r3, [r3, #52]	; 0x34
 800184e:	2202      	movs	r2, #2
 8001850:	4013      	ands	r3, r2
 8001852:	d0f1      	beq.n	8001838 <HAL_RCC_OscConfig+0x448>
 8001854:	4b85      	ldr	r3, [pc, #532]	; (8001a6c <HAL_RCC_OscConfig+0x67c>)
 8001856:	6b5b      	ldr	r3, [r3, #52]	; 0x34
 8001858:	22f8      	movs	r2, #248	; 0xf8
 800185a:	4393      	bics	r3, r2
 800185c:	0019      	movs	r1, r3
 800185e:	687b      	ldr	r3, [r7, #4]
 8001860:	699b      	ldr	r3, [r3, #24]
 8001862:	00da      	lsls	r2, r3, #3
 8001864:	4b81      	ldr	r3, [pc, #516]	; (8001a6c <HAL_RCC_OscConfig+0x67c>)
 8001866:	430a      	orrs	r2, r1
 8001868:	635a      	str	r2, [r3, #52]	; 0x34
 800186a:	e034      	b.n	80018d6 <HAL_RCC_OscConfig+0x4e6>
 800186c:	687b      	ldr	r3, [r7, #4]
 800186e:	695b      	ldr	r3, [r3, #20]
 8001870:	3305      	adds	r3, #5
 8001872:	d111      	bne.n	8001898 <HAL_RCC_OscConfig+0x4a8>
 8001874:	4b7d      	ldr	r3, [pc, #500]	; (8001a6c <HAL_RCC_OscConfig+0x67c>)
 8001876:	6b5a      	ldr	r2, [r3, #52]	; 0x34
 8001878:	4b7c      	ldr	r3, [pc, #496]	; (8001a6c <HAL_RCC_OscConfig+0x67c>)
 800187a:	2104      	movs	r1, #4
 800187c:	438a      	bics	r2, r1
 800187e:	635a      	str	r2, [r3, #52]	; 0x34
 8001880:	4b7a      	ldr	r3, [pc, #488]	; (8001a6c <HAL_RCC_OscConfig+0x67c>)
 8001882:	6b5b      	ldr	r3, [r3, #52]	; 0x34
 8001884:	22f8      	movs	r2, #248	; 0xf8
 8001886:	4393      	bics	r3, r2
 8001888:	0019      	movs	r1, r3
 800188a:	687b      	ldr	r3, [r7, #4]
 800188c:	699b      	ldr	r3, [r3, #24]
 800188e:	00da      	lsls	r2, r3, #3
 8001890:	4b76      	ldr	r3, [pc, #472]	; (8001a6c <HAL_RCC_OscConfig+0x67c>)
 8001892:	430a      	orrs	r2, r1
 8001894:	635a      	str	r2, [r3, #52]	; 0x34
 8001896:	e01e      	b.n	80018d6 <HAL_RCC_OscConfig+0x4e6>
 8001898:	4b74      	ldr	r3, [pc, #464]	; (8001a6c <HAL_RCC_OscConfig+0x67c>)
 800189a:	6b5a      	ldr	r2, [r3, #52]	; 0x34
 800189c:	4b73      	ldr	r3, [pc, #460]	; (8001a6c <HAL_RCC_OscConfig+0x67c>)
 800189e:	2104      	movs	r1, #4
 80018a0:	430a      	orrs	r2, r1
 80018a2:	635a      	str	r2, [r3, #52]	; 0x34
 80018a4:	4b71      	ldr	r3, [pc, #452]	; (8001a6c <HAL_RCC_OscConfig+0x67c>)
 80018a6:	6b5a      	ldr	r2, [r3, #52]	; 0x34
 80018a8:	4b70      	ldr	r3, [pc, #448]	; (8001a6c <HAL_RCC_OscConfig+0x67c>)
 80018aa:	2101      	movs	r1, #1
 80018ac:	438a      	bics	r2, r1
 80018ae:	635a      	str	r2, [r3, #52]	; 0x34
 80018b0:	f7ff fae0 	bl	8000e74 <HAL_GetTick>
 80018b4:	0003      	movs	r3, r0
 80018b6:	61bb      	str	r3, [r7, #24]
 80018b8:	e008      	b.n	80018cc <HAL_RCC_OscConfig+0x4dc>
 80018ba:	f7ff fadb 	bl	8000e74 <HAL_GetTick>
 80018be:	0002      	movs	r2, r0
 80018c0:	69bb      	ldr	r3, [r7, #24]
 80018c2:	1ad3      	subs	r3, r2, r3
 80018c4:	2b02      	cmp	r3, #2
 80018c6:	d901      	bls.n	80018cc <HAL_RCC_OscConfig+0x4dc>
 80018c8:	2303      	movs	r3, #3
 80018ca:	e111      	b.n	8001af0 <HAL_RCC_OscConfig+0x700>
 80018cc:	4b67      	ldr	r3, [pc, #412]	; (8001a6c <HAL_RCC_OscConfig+0x67c>)
 80018ce:	6b5b      	ldr	r3, [r3, #52]	; 0x34
 80018d0:	2202      	movs	r2, #2
 80018d2:	4013      	ands	r3, r2
 80018d4:	d1f1      	bne.n	80018ba <HAL_RCC_OscConfig+0x4ca>
 80018d6:	687b      	ldr	r3, [r7, #4]
 80018d8:	681b      	ldr	r3, [r3, #0]
 80018da:	2220      	movs	r2, #32
 80018dc:	4013      	ands	r3, r2
 80018de:	d05c      	beq.n	800199a <HAL_RCC_OscConfig+0x5aa>
 80018e0:	4b62      	ldr	r3, [pc, #392]	; (8001a6c <HAL_RCC_OscConfig+0x67c>)
 80018e2:	685b      	ldr	r3, [r3, #4]
 80018e4:	220c      	movs	r2, #12
 80018e6:	4013      	ands	r3, r2
 80018e8:	2b0c      	cmp	r3, #12
 80018ea:	d00e      	beq.n	800190a <HAL_RCC_OscConfig+0x51a>
 80018ec:	4b5f      	ldr	r3, [pc, #380]	; (8001a6c <HAL_RCC_OscConfig+0x67c>)
 80018ee:	685b      	ldr	r3, [r3, #4]
 80018f0:	220c      	movs	r2, #12
 80018f2:	4013      	ands	r3, r2
 80018f4:	2b08      	cmp	r3, #8
 80018f6:	d114      	bne.n	8001922 <HAL_RCC_OscConfig+0x532>
 80018f8:	4b5c      	ldr	r3, [pc, #368]	; (8001a6c <HAL_RCC_OscConfig+0x67c>)
 80018fa:	685a      	ldr	r2, [r3, #4]
 80018fc:	23c0      	movs	r3, #192	; 0xc0
 80018fe:	025b      	lsls	r3, r3, #9
 8001900:	401a      	ands	r2, r3
 8001902:	23c0      	movs	r3, #192	; 0xc0
 8001904:	025b      	lsls	r3, r3, #9
 8001906:	429a      	cmp	r2, r3
 8001908:	d10b      	bne.n	8001922 <HAL_RCC_OscConfig+0x532>
 800190a:	4b58      	ldr	r3, [pc, #352]	; (8001a6c <HAL_RCC_OscConfig+0x67c>)
 800190c:	6b5a      	ldr	r2, [r3, #52]	; 0x34
 800190e:	2380      	movs	r3, #128	; 0x80
 8001910:	029b      	lsls	r3, r3, #10
 8001912:	4013      	ands	r3, r2
 8001914:	d040      	beq.n	8001998 <HAL_RCC_OscConfig+0x5a8>
 8001916:	687b      	ldr	r3, [r7, #4]
 8001918:	6a1b      	ldr	r3, [r3, #32]
 800191a:	2b01      	cmp	r3, #1
 800191c:	d03c      	beq.n	8001998 <HAL_RCC_OscConfig+0x5a8>
 800191e:	2301      	movs	r3, #1
 8001920:	e0e6      	b.n	8001af0 <HAL_RCC_OscConfig+0x700>
 8001922:	687b      	ldr	r3, [r7, #4]
 8001924:	6a1b      	ldr	r3, [r3, #32]
 8001926:	2b00      	cmp	r3, #0
 8001928:	d01b      	beq.n	8001962 <HAL_RCC_OscConfig+0x572>
 800192a:	4b50      	ldr	r3, [pc, #320]	; (8001a6c <HAL_RCC_OscConfig+0x67c>)
 800192c:	6b5a      	ldr	r2, [r3, #52]	; 0x34
 800192e:	4b4f      	ldr	r3, [pc, #316]	; (8001a6c <HAL_RCC_OscConfig+0x67c>)
 8001930:	2180      	movs	r1, #128	; 0x80
 8001932:	0249      	lsls	r1, r1, #9
 8001934:	430a      	orrs	r2, r1
 8001936:	635a      	str	r2, [r3, #52]	; 0x34
 8001938:	f7ff fa9c 	bl	8000e74 <HAL_GetTick>
 800193c:	0003      	movs	r3, r0
 800193e:	61bb      	str	r3, [r7, #24]
 8001940:	e008      	b.n	8001954 <HAL_RCC_OscConfig+0x564>
 8001942:	f7ff fa97 	bl	8000e74 <HAL_GetTick>
 8001946:	0002      	movs	r2, r0
 8001948:	69bb      	ldr	r3, [r7, #24]
 800194a:	1ad3      	subs	r3, r2, r3
 800194c:	2b02      	cmp	r3, #2
 800194e:	d901      	bls.n	8001954 <HAL_RCC_OscConfig+0x564>
 8001950:	2303      	movs	r3, #3
 8001952:	e0cd      	b.n	8001af0 <HAL_RCC_OscConfig+0x700>
 8001954:	4b45      	ldr	r3, [pc, #276]	; (8001a6c <HAL_RCC_OscConfig+0x67c>)
 8001956:	6b5a      	ldr	r2, [r3, #52]	; 0x34
 8001958:	2380      	movs	r3, #128	; 0x80
 800195a:	029b      	lsls	r3, r3, #10
 800195c:	4013      	ands	r3, r2
 800195e:	d0f0      	beq.n	8001942 <HAL_RCC_OscConfig+0x552>
 8001960:	e01b      	b.n	800199a <HAL_RCC_OscConfig+0x5aa>
 8001962:	4b42      	ldr	r3, [pc, #264]	; (8001a6c <HAL_RCC_OscConfig+0x67c>)
 8001964:	6b5a      	ldr	r2, [r3, #52]	; 0x34
 8001966:	4b41      	ldr	r3, [pc, #260]	; (8001a6c <HAL_RCC_OscConfig+0x67c>)
 8001968:	4943      	ldr	r1, [pc, #268]	; (8001a78 <HAL_RCC_OscConfig+0x688>)
 800196a:	400a      	ands	r2, r1
 800196c:	635a      	str	r2, [r3, #52]	; 0x34
 800196e:	f7ff fa81 	bl	8000e74 <HAL_GetTick>
 8001972:	0003      	movs	r3, r0
 8001974:	61bb      	str	r3, [r7, #24]
 8001976:	e008      	b.n	800198a <HAL_RCC_OscConfig+0x59a>
 8001978:	f7ff fa7c 	bl	8000e74 <HAL_GetTick>
 800197c:	0002      	movs	r2, r0
 800197e:	69bb      	ldr	r3, [r7, #24]
 8001980:	1ad3      	subs	r3, r2, r3
 8001982:	2b02      	cmp	r3, #2
 8001984:	d901      	bls.n	800198a <HAL_RCC_OscConfig+0x59a>
 8001986:	2303      	movs	r3, #3
 8001988:	e0b2      	b.n	8001af0 <HAL_RCC_OscConfig+0x700>
 800198a:	4b38      	ldr	r3, [pc, #224]	; (8001a6c <HAL_RCC_OscConfig+0x67c>)
 800198c:	6b5a      	ldr	r2, [r3, #52]	; 0x34
 800198e:	2380      	movs	r3, #128	; 0x80
 8001990:	029b      	lsls	r3, r3, #10
 8001992:	4013      	ands	r3, r2
 8001994:	d1f0      	bne.n	8001978 <HAL_RCC_OscConfig+0x588>
 8001996:	e000      	b.n	800199a <HAL_RCC_OscConfig+0x5aa>
 8001998:	46c0      	nop			; (mov r8, r8)
 800199a:	687b      	ldr	r3, [r7, #4]
 800199c:	6a5b      	ldr	r3, [r3, #36]	; 0x24
 800199e:	2b00      	cmp	r3, #0
 80019a0:	d100      	bne.n	80019a4 <HAL_RCC_OscConfig+0x5b4>
 80019a2:	e0a4      	b.n	8001aee <HAL_RCC_OscConfig+0x6fe>
 80019a4:	4b31      	ldr	r3, [pc, #196]	; (8001a6c <HAL_RCC_OscConfig+0x67c>)
 80019a6:	685b      	ldr	r3, [r3, #4]
 80019a8:	220c      	movs	r2, #12
 80019aa:	4013      	ands	r3, r2
 80019ac:	2b08      	cmp	r3, #8
 80019ae:	d100      	bne.n	80019b2 <HAL_RCC_OscConfig+0x5c2>
 80019b0:	e078      	b.n	8001aa4 <HAL_RCC_OscConfig+0x6b4>
 80019b2:	687b      	ldr	r3, [r7, #4]
 80019b4:	6a5b      	ldr	r3, [r3, #36]	; 0x24
 80019b6:	2b02      	cmp	r3, #2
 80019b8:	d14c      	bne.n	8001a54 <HAL_RCC_OscConfig+0x664>
 80019ba:	4b2c      	ldr	r3, [pc, #176]	; (8001a6c <HAL_RCC_OscConfig+0x67c>)
 80019bc:	681a      	ldr	r2, [r3, #0]
 80019be:	4b2b      	ldr	r3, [pc, #172]	; (8001a6c <HAL_RCC_OscConfig+0x67c>)
 80019c0:	492e      	ldr	r1, [pc, #184]	; (8001a7c <HAL_RCC_OscConfig+0x68c>)
 80019c2:	400a      	ands	r2, r1
 80019c4:	601a      	str	r2, [r3, #0]
 80019c6:	f7ff fa55 	bl	8000e74 <HAL_GetTick>
 80019ca:	0003      	movs	r3, r0
 80019cc:	61bb      	str	r3, [r7, #24]
 80019ce:	e008      	b.n	80019e2 <HAL_RCC_OscConfig+0x5f2>
 80019d0:	f7ff fa50 	bl	8000e74 <HAL_GetTick>
 80019d4:	0002      	movs	r2, r0
 80019d6:	69bb      	ldr	r3, [r7, #24]
 80019d8:	1ad3      	subs	r3, r2, r3
 80019da:	2b02      	cmp	r3, #2
 80019dc:	d901      	bls.n	80019e2 <HAL_RCC_OscConfig+0x5f2>
 80019de:	2303      	movs	r3, #3
 80019e0:	e086      	b.n	8001af0 <HAL_RCC_OscConfig+0x700>
 80019e2:	4b22      	ldr	r3, [pc, #136]	; (8001a6c <HAL_RCC_OscConfig+0x67c>)
 80019e4:	681a      	ldr	r2, [r3, #0]
 80019e6:	2380      	movs	r3, #128	; 0x80
 80019e8:	049b      	lsls	r3, r3, #18
 80019ea:	4013      	ands	r3, r2
 80019ec:	d1f0      	bne.n	80019d0 <HAL_RCC_OscConfig+0x5e0>
 80019ee:	4b1f      	ldr	r3, [pc, #124]	; (8001a6c <HAL_RCC_OscConfig+0x67c>)
 80019f0:	6adb      	ldr	r3, [r3, #44]	; 0x2c
 80019f2:	220f      	movs	r2, #15
 80019f4:	4393      	bics	r3, r2
 80019f6:	0019      	movs	r1, r3
 80019f8:	687b      	ldr	r3, [r7, #4]
 80019fa:	6b1a      	ldr	r2, [r3, #48]	; 0x30
 80019fc:	4b1b      	ldr	r3, [pc, #108]	; (8001a6c <HAL_RCC_OscConfig+0x67c>)
 80019fe:	430a      	orrs	r2, r1
 8001a00:	62da      	str	r2, [r3, #44]	; 0x2c
 8001a02:	4b1a      	ldr	r3, [pc, #104]	; (8001a6c <HAL_RCC_OscConfig+0x67c>)
 8001a04:	685b      	ldr	r3, [r3, #4]
 8001a06:	4a1e      	ldr	r2, [pc, #120]	; (8001a80 <HAL_RCC_OscConfig+0x690>)
 8001a08:	4013      	ands	r3, r2
 8001a0a:	0019      	movs	r1, r3
 8001a0c:	687b      	ldr	r3, [r7, #4]
 8001a0e:	6ada      	ldr	r2, [r3, #44]	; 0x2c
 8001a10:	687b      	ldr	r3, [r7, #4]
 8001a12:	6a9b      	ldr	r3, [r3, #40]	; 0x28
 8001a14:	431a      	orrs	r2, r3
 8001a16:	4b15      	ldr	r3, [pc, #84]	; (8001a6c <HAL_RCC_OscConfig+0x67c>)
 8001a18:	430a      	orrs	r2, r1
 8001a1a:	605a      	str	r2, [r3, #4]
 8001a1c:	4b13      	ldr	r3, [pc, #76]	; (8001a6c <HAL_RCC_OscConfig+0x67c>)
 8001a1e:	681a      	ldr	r2, [r3, #0]
 8001a20:	4b12      	ldr	r3, [pc, #72]	; (8001a6c <HAL_RCC_OscConfig+0x67c>)
 8001a22:	2180      	movs	r1, #128	; 0x80
 8001a24:	0449      	lsls	r1, r1, #17
 8001a26:	430a      	orrs	r2, r1
 8001a28:	601a      	str	r2, [r3, #0]
 8001a2a:	f7ff fa23 	bl	8000e74 <HAL_GetTick>
 8001a2e:	0003      	movs	r3, r0
 8001a30:	61bb      	str	r3, [r7, #24]
 8001a32:	e008      	b.n	8001a46 <HAL_RCC_OscConfig+0x656>
 8001a34:	f7ff fa1e 	bl	8000e74 <HAL_GetTick>
 8001a38:	0002      	movs	r2, r0
 8001a3a:	69bb      	ldr	r3, [r7, #24]
 8001a3c:	1ad3      	subs	r3, r2, r3
 8001a3e:	2b02      	cmp	r3, #2
 8001a40:	d901      	bls.n	8001a46 <HAL_RCC_OscConfig+0x656>
 8001a42:	2303      	movs	r3, #3
 8001a44:	e054      	b.n	8001af0 <HAL_RCC_OscConfig+0x700>
 8001a46:	4b09      	ldr	r3, [pc, #36]	; (8001a6c <HAL_RCC_OscConfig+0x67c>)
 8001a48:	681a      	ldr	r2, [r3, #0]
 8001a4a:	2380      	movs	r3, #128	; 0x80
 8001a4c:	049b      	lsls	r3, r3, #18
 8001a4e:	4013      	ands	r3, r2
 8001a50:	d0f0      	beq.n	8001a34 <HAL_RCC_OscConfig+0x644>
 8001a52:	e04c      	b.n	8001aee <HAL_RCC_OscConfig+0x6fe>
 8001a54:	4b05      	ldr	r3, [pc, #20]	; (8001a6c <HAL_RCC_OscConfig+0x67c>)
 8001a56:	681a      	ldr	r2, [r3, #0]
 8001a58:	4b04      	ldr	r3, [pc, #16]	; (8001a6c <HAL_RCC_OscConfig+0x67c>)
 8001a5a:	4908      	ldr	r1, [pc, #32]	; (8001a7c <HAL_RCC_OscConfig+0x68c>)
 8001a5c:	400a      	ands	r2, r1
 8001a5e:	601a      	str	r2, [r3, #0]
 8001a60:	f7ff fa08 	bl	8000e74 <HAL_GetTick>
 8001a64:	0003      	movs	r3, r0
 8001a66:	61bb      	str	r3, [r7, #24]
 8001a68:	e015      	b.n	8001a96 <HAL_RCC_OscConfig+0x6a6>
 8001a6a:	46c0      	nop			; (mov r8, r8)
 8001a6c:	40021000 	.word	0x40021000
 8001a70:	00001388 	.word	0x00001388
 8001a74:	efffffff 	.word	0xefffffff
 8001a78:	fffeffff 	.word	0xfffeffff
 8001a7c:	feffffff 	.word	0xfeffffff
 8001a80:	ffc27fff 	.word	0xffc27fff
 8001a84:	f7ff f9f6 	bl	8000e74 <HAL_GetTick>
 8001a88:	0002      	movs	r2, r0
 8001a8a:	69bb      	ldr	r3, [r7, #24]
 8001a8c:	1ad3      	subs	r3, r2, r3
 8001a8e:	2b02      	cmp	r3, #2
 8001a90:	d901      	bls.n	8001a96 <HAL_RCC_OscConfig+0x6a6>
 8001a92:	2303      	movs	r3, #3
 8001a94:	e02c      	b.n	8001af0 <HAL_RCC_OscConfig+0x700>
 8001a96:	4b18      	ldr	r3, [pc, #96]	; (8001af8 <HAL_RCC_OscConfig+0x708>)
 8001a98:	681a      	ldr	r2, [r3, #0]
 8001a9a:	2380      	movs	r3, #128	; 0x80
 8001a9c:	049b      	lsls	r3, r3, #18
 8001a9e:	4013      	ands	r3, r2
 8001aa0:	d1f0      	bne.n	8001a84 <HAL_RCC_OscConfig+0x694>
 8001aa2:	e024      	b.n	8001aee <HAL_RCC_OscConfig+0x6fe>
 8001aa4:	687b      	ldr	r3, [r7, #4]
 8001aa6:	6a5b      	ldr	r3, [r3, #36]	; 0x24
 8001aa8:	2b01      	cmp	r3, #1
 8001aaa:	d101      	bne.n	8001ab0 <HAL_RCC_OscConfig+0x6c0>
 8001aac:	2301      	movs	r3, #1
 8001aae:	e01f      	b.n	8001af0 <HAL_RCC_OscConfig+0x700>
 8001ab0:	4b11      	ldr	r3, [pc, #68]	; (8001af8 <HAL_RCC_OscConfig+0x708>)
 8001ab2:	685b      	ldr	r3, [r3, #4]
 8001ab4:	617b      	str	r3, [r7, #20]
 8001ab6:	4b10      	ldr	r3, [pc, #64]	; (8001af8 <HAL_RCC_OscConfig+0x708>)
 8001ab8:	6adb      	ldr	r3, [r3, #44]	; 0x2c
 8001aba:	613b      	str	r3, [r7, #16]
 8001abc:	697a      	ldr	r2, [r7, #20]
 8001abe:	23c0      	movs	r3, #192	; 0xc0
 8001ac0:	025b      	lsls	r3, r3, #9
 8001ac2:	401a      	ands	r2, r3
 8001ac4:	687b      	ldr	r3, [r7, #4]
 8001ac6:	6a9b      	ldr	r3, [r3, #40]	; 0x28
 8001ac8:	429a      	cmp	r2, r3
 8001aca:	d10e      	bne.n	8001aea <HAL_RCC_OscConfig+0x6fa>
 8001acc:	693b      	ldr	r3, [r7, #16]
 8001ace:	220f      	movs	r2, #15
 8001ad0:	401a      	ands	r2, r3
 8001ad2:	687b      	ldr	r3, [r7, #4]
 8001ad4:	6b1b      	ldr	r3, [r3, #48]	; 0x30
 8001ad6:	429a      	cmp	r2, r3
 8001ad8:	d107      	bne.n	8001aea <HAL_RCC_OscConfig+0x6fa>
 8001ada:	697a      	ldr	r2, [r7, #20]
 8001adc:	23f0      	movs	r3, #240	; 0xf0
 8001ade:	039b      	lsls	r3, r3, #14
 8001ae0:	401a      	ands	r2, r3
 8001ae2:	687b      	ldr	r3, [r7, #4]
 8001ae4:	6adb      	ldr	r3, [r3, #44]	; 0x2c
 8001ae6:	429a      	cmp	r2, r3
 8001ae8:	d001      	beq.n	8001aee <HAL_RCC_OscConfig+0x6fe>
 8001aea:	2301      	movs	r3, #1
 8001aec:	e000      	b.n	8001af0 <HAL_RCC_OscConfig+0x700>
 8001aee:	2300      	movs	r3, #0
 8001af0:	0018      	movs	r0, r3
 8001af2:	46bd      	mov	sp, r7
 8001af4:	b008      	add	sp, #32
 8001af6:	bd80      	pop	{r7, pc}
 8001af8:	40021000 	.word	0x40021000

08001afc <HAL_RCC_ClockConfig>:
 8001afc:	b580      	push	{r7, lr}
 8001afe:	b084      	sub	sp, #16
 8001b00:	af00      	add	r7, sp, #0
 8001b02:	6078      	str	r0, [r7, #4]
 8001b04:	6039      	str	r1, [r7, #0]
 8001b06:	687b      	ldr	r3, [r7, #4]
 8001b08:	2b00      	cmp	r3, #0
 8001b0a:	d101      	bne.n	8001b10 <HAL_RCC_ClockConfig+0x14>
 8001b0c:	2301      	movs	r3, #1
 8001b0e:	e0bf      	b.n	8001c90 <HAL_RCC_ClockConfig+0x194>
 8001b10:	4b61      	ldr	r3, [pc, #388]	; (8001c98 <HAL_RCC_ClockConfig+0x19c>)
 8001b12:	681b      	ldr	r3, [r3, #0]
 8001b14:	2201      	movs	r2, #1
 8001b16:	4013      	ands	r3, r2
 8001b18:	683a      	ldr	r2, [r7, #0]
 8001b1a:	429a      	cmp	r2, r3
 8001b1c:	d911      	bls.n	8001b42 <HAL_RCC_ClockConfig+0x46>
 8001b1e:	4b5e      	ldr	r3, [pc, #376]	; (8001c98 <HAL_RCC_ClockConfig+0x19c>)
 8001b20:	681b      	ldr	r3, [r3, #0]
 8001b22:	2201      	movs	r2, #1
 8001b24:	4393      	bics	r3, r2
 8001b26:	0019      	movs	r1, r3
 8001b28:	4b5b      	ldr	r3, [pc, #364]	; (8001c98 <HAL_RCC_ClockConfig+0x19c>)
 8001b2a:	683a      	ldr	r2, [r7, #0]
 8001b2c:	430a      	orrs	r2, r1
 8001b2e:	601a      	str	r2, [r3, #0]
 8001b30:	4b59      	ldr	r3, [pc, #356]	; (8001c98 <HAL_RCC_ClockConfig+0x19c>)
 8001b32:	681b      	ldr	r3, [r3, #0]
 8001b34:	2201      	movs	r2, #1
 8001b36:	4013      	ands	r3, r2
 8001b38:	683a      	ldr	r2, [r7, #0]
 8001b3a:	429a      	cmp	r2, r3
 8001b3c:	d001      	beq.n	8001b42 <HAL_RCC_ClockConfig+0x46>
 8001b3e:	2301      	movs	r3, #1
 8001b40:	e0a6      	b.n	8001c90 <HAL_RCC_ClockConfig+0x194>
 8001b42:	687b      	ldr	r3, [r7, #4]
 8001b44:	681b      	ldr	r3, [r3, #0]
 8001b46:	2202      	movs	r2, #2
 8001b48:	4013      	ands	r3, r2
 8001b4a:	d015      	beq.n	8001b78 <HAL_RCC_ClockConfig+0x7c>
 8001b4c:	687b      	ldr	r3, [r7, #4]
 8001b4e:	681b      	ldr	r3, [r3, #0]
 8001b50:	2204      	movs	r2, #4
 8001b52:	4013      	ands	r3, r2
 8001b54:	d006      	beq.n	8001b64 <HAL_RCC_ClockConfig+0x68>
 8001b56:	4b51      	ldr	r3, [pc, #324]	; (8001c9c <HAL_RCC_ClockConfig+0x1a0>)
 8001b58:	685a      	ldr	r2, [r3, #4]
 8001b5a:	4b50      	ldr	r3, [pc, #320]	; (8001c9c <HAL_RCC_ClockConfig+0x1a0>)
 8001b5c:	21e0      	movs	r1, #224	; 0xe0
 8001b5e:	00c9      	lsls	r1, r1, #3
 8001b60:	430a      	orrs	r2, r1
 8001b62:	605a      	str	r2, [r3, #4]
 8001b64:	4b4d      	ldr	r3, [pc, #308]	; (8001c9c <HAL_RCC_ClockConfig+0x1a0>)
 8001b66:	685b      	ldr	r3, [r3, #4]
 8001b68:	22f0      	movs	r2, #240	; 0xf0
 8001b6a:	4393      	bics	r3, r2
 8001b6c:	0019      	movs	r1, r3
 8001b6e:	687b      	ldr	r3, [r7, #4]
 8001b70:	689a      	ldr	r2, [r3, #8]
 8001b72:	4b4a      	ldr	r3, [pc, #296]	; (8001c9c <HAL_RCC_ClockConfig+0x1a0>)
 8001b74:	430a      	orrs	r2, r1
 8001b76:	605a      	str	r2, [r3, #4]
 8001b78:	687b      	ldr	r3, [r7, #4]
 8001b7a:	681b      	ldr	r3, [r3, #0]
 8001b7c:	2201      	movs	r2, #1
 8001b7e:	4013      	ands	r3, r2
 8001b80:	d04c      	beq.n	8001c1c <HAL_RCC_ClockConfig+0x120>
 8001b82:	687b      	ldr	r3, [r7, #4]
 8001b84:	685b      	ldr	r3, [r3, #4]
 8001b86:	2b01      	cmp	r3, #1
 8001b88:	d107      	bne.n	8001b9a <HAL_RCC_ClockConfig+0x9e>
 8001b8a:	4b44      	ldr	r3, [pc, #272]	; (8001c9c <HAL_RCC_ClockConfig+0x1a0>)
 8001b8c:	681a      	ldr	r2, [r3, #0]
 8001b8e:	2380      	movs	r3, #128	; 0x80
 8001b90:	029b      	lsls	r3, r3, #10
 8001b92:	4013      	ands	r3, r2
 8001b94:	d120      	bne.n	8001bd8 <HAL_RCC_ClockConfig+0xdc>
 8001b96:	2301      	movs	r3, #1
 8001b98:	e07a      	b.n	8001c90 <HAL_RCC_ClockConfig+0x194>
 8001b9a:	687b      	ldr	r3, [r7, #4]
 8001b9c:	685b      	ldr	r3, [r3, #4]
 8001b9e:	2b02      	cmp	r3, #2
 8001ba0:	d107      	bne.n	8001bb2 <HAL_RCC_ClockConfig+0xb6>
 8001ba2:	4b3e      	ldr	r3, [pc, #248]	; (8001c9c <HAL_RCC_ClockConfig+0x1a0>)
 8001ba4:	681a      	ldr	r2, [r3, #0]
 8001ba6:	2380      	movs	r3, #128	; 0x80
 8001ba8:	049b      	lsls	r3, r3, #18
 8001baa:	4013      	ands	r3, r2
 8001bac:	d114      	bne.n	8001bd8 <HAL_RCC_ClockConfig+0xdc>
 8001bae:	2301      	movs	r3, #1
 8001bb0:	e06e      	b.n	8001c90 <HAL_RCC_ClockConfig+0x194>
 8001bb2:	687b      	ldr	r3, [r7, #4]
 8001bb4:	685b      	ldr	r3, [r3, #4]
 8001bb6:	2b03      	cmp	r3, #3
 8001bb8:	d107      	bne.n	8001bca <HAL_RCC_ClockConfig+0xce>
 8001bba:	4b38      	ldr	r3, [pc, #224]	; (8001c9c <HAL_RCC_ClockConfig+0x1a0>)
 8001bbc:	6b5a      	ldr	r2, [r3, #52]	; 0x34
 8001bbe:	2380      	movs	r3, #128	; 0x80
 8001bc0:	029b      	lsls	r3, r3, #10
 8001bc2:	4013      	ands	r3, r2
 8001bc4:	d108      	bne.n	8001bd8 <HAL_RCC_ClockConfig+0xdc>
 8001bc6:	2301      	movs	r3, #1
 8001bc8:	e062      	b.n	8001c90 <HAL_RCC_ClockConfig+0x194>
 8001bca:	4b34      	ldr	r3, [pc, #208]	; (8001c9c <HAL_RCC_ClockConfig+0x1a0>)
 8001bcc:	681b      	ldr	r3, [r3, #0]
 8001bce:	2202      	movs	r2, #2
 8001bd0:	4013      	ands	r3, r2
 8001bd2:	d101      	bne.n	8001bd8 <HAL_RCC_ClockConfig+0xdc>
 8001bd4:	2301      	movs	r3, #1
 8001bd6:	e05b      	b.n	8001c90 <HAL_RCC_ClockConfig+0x194>
 8001bd8:	4b30      	ldr	r3, [pc, #192]	; (8001c9c <HAL_RCC_ClockConfig+0x1a0>)
 8001bda:	685b      	ldr	r3, [r3, #4]
 8001bdc:	2203      	movs	r2, #3
 8001bde:	4393      	bics	r3, r2
 8001be0:	0019      	movs	r1, r3
 8001be2:	687b      	ldr	r3, [r7, #4]
 8001be4:	685a      	ldr	r2, [r3, #4]
 8001be6:	4b2d      	ldr	r3, [pc, #180]	; (8001c9c <HAL_RCC_ClockConfig+0x1a0>)
 8001be8:	430a      	orrs	r2, r1
 8001bea:	605a      	str	r2, [r3, #4]
 8001bec:	f7ff f942 	bl	8000e74 <HAL_GetTick>
 8001bf0:	0003      	movs	r3, r0
 8001bf2:	60fb      	str	r3, [r7, #12]
 8001bf4:	e009      	b.n	8001c0a <HAL_RCC_ClockConfig+0x10e>
 8001bf6:	f7ff f93d 	bl	8000e74 <HAL_GetTick>
 8001bfa:	0002      	movs	r2, r0
 8001bfc:	68fb      	ldr	r3, [r7, #12]
 8001bfe:	1ad3      	subs	r3, r2, r3
 8001c00:	4a27      	ldr	r2, [pc, #156]	; (8001ca0 <HAL_RCC_ClockConfig+0x1a4>)
 8001c02:	4293      	cmp	r3, r2
 8001c04:	d901      	bls.n	8001c0a <HAL_RCC_ClockConfig+0x10e>
 8001c06:	2303      	movs	r3, #3
 8001c08:	e042      	b.n	8001c90 <HAL_RCC_ClockConfig+0x194>
 8001c0a:	4b24      	ldr	r3, [pc, #144]	; (8001c9c <HAL_RCC_ClockConfig+0x1a0>)
 8001c0c:	685b      	ldr	r3, [r3, #4]
 8001c0e:	220c      	movs	r2, #12
 8001c10:	401a      	ands	r2, r3
 8001c12:	687b      	ldr	r3, [r7, #4]
 8001c14:	685b      	ldr	r3, [r3, #4]
 8001c16:	009b      	lsls	r3, r3, #2
 8001c18:	429a      	cmp	r2, r3
 8001c1a:	d1ec      	bne.n	8001bf6 <HAL_RCC_ClockConfig+0xfa>
 8001c1c:	4b1e      	ldr	r3, [pc, #120]	; (8001c98 <HAL_RCC_ClockConfig+0x19c>)
 8001c1e:	681b      	ldr	r3, [r3, #0]
 8001c20:	2201      	movs	r2, #1
 8001c22:	4013      	ands	r3, r2
 8001c24:	683a      	ldr	r2, [r7, #0]
 8001c26:	429a      	cmp	r2, r3
 8001c28:	d211      	bcs.n	8001c4e <HAL_RCC_ClockConfig+0x152>
 8001c2a:	4b1b      	ldr	r3, [pc, #108]	; (8001c98 <HAL_RCC_ClockConfig+0x19c>)
 8001c2c:	681b      	ldr	r3, [r3, #0]
 8001c2e:	2201      	movs	r2, #1
 8001c30:	4393      	bics	r3, r2
 8001c32:	0019      	movs	r1, r3
 8001c34:	4b18      	ldr	r3, [pc, #96]	; (8001c98 <HAL_RCC_ClockConfig+0x19c>)
 8001c36:	683a      	ldr	r2, [r7, #0]
 8001c38:	430a      	orrs	r2, r1
 8001c3a:	601a      	str	r2, [r3, #0]
 8001c3c:	4b16      	ldr	r3, [pc, #88]	; (8001c98 <HAL_RCC_ClockConfig+0x19c>)
 8001c3e:	681b      	ldr	r3, [r3, #0]
 8001c40:	2201      	movs	r2, #1
 8001c42:	4013      	ands	r3, r2
 8001c44:	683a      	ldr	r2, [r7, #0]
 8001c46:	429a      	cmp	r2, r3
 8001c48:	d001      	beq.n	8001c4e <HAL_RCC_ClockConfig+0x152>
 8001c4a:	2301      	movs	r3, #1
 8001c4c:	e020      	b.n	8001c90 <HAL_RCC_ClockConfig+0x194>
 8001c4e:	687b      	ldr	r3, [r7, #4]
 8001c50:	681b      	ldr	r3, [r3, #0]
 8001c52:	2204      	movs	r2, #4
 8001c54:	4013      	ands	r3, r2
 8001c56:	d009      	beq.n	8001c6c <HAL_RCC_ClockConfig+0x170>
 8001c58:	4b10      	ldr	r3, [pc, #64]	; (8001c9c <HAL_RCC_ClockConfig+0x1a0>)
 8001c5a:	685b      	ldr	r3, [r3, #4]
 8001c5c:	4a11      	ldr	r2, [pc, #68]	; (8001ca4 <HAL_RCC_ClockConfig+0x1a8>)
 8001c5e:	4013      	ands	r3, r2
 8001c60:	0019      	movs	r1, r3
 8001c62:	687b      	ldr	r3, [r7, #4]
 8001c64:	68da      	ldr	r2, [r3, #12]
 8001c66:	4b0d      	ldr	r3, [pc, #52]	; (8001c9c <HAL_RCC_ClockConfig+0x1a0>)
 8001c68:	430a      	orrs	r2, r1
 8001c6a:	605a      	str	r2, [r3, #4]
 8001c6c:	f000 f820 	bl	8001cb0 <HAL_RCC_GetSysClockFreq>
 8001c70:	0001      	movs	r1, r0
 8001c72:	4b0a      	ldr	r3, [pc, #40]	; (8001c9c <HAL_RCC_ClockConfig+0x1a0>)
 8001c74:	685b      	ldr	r3, [r3, #4]
 8001c76:	091b      	lsrs	r3, r3, #4
 8001c78:	220f      	movs	r2, #15
 8001c7a:	4013      	ands	r3, r2
 8001c7c:	4a0a      	ldr	r2, [pc, #40]	; (8001ca8 <HAL_RCC_ClockConfig+0x1ac>)
 8001c7e:	5cd3      	ldrb	r3, [r2, r3]
 8001c80:	000a      	movs	r2, r1
 8001c82:	40da      	lsrs	r2, r3
 8001c84:	4b09      	ldr	r3, [pc, #36]	; (8001cac <HAL_RCC_ClockConfig+0x1b0>)
 8001c86:	601a      	str	r2, [r3, #0]
 8001c88:	2003      	movs	r0, #3
 8001c8a:	f7ff f8ad 	bl	8000de8 <HAL_InitTick>
 8001c8e:	2300      	movs	r3, #0
 8001c90:	0018      	movs	r0, r3
 8001c92:	46bd      	mov	sp, r7
 8001c94:	b004      	add	sp, #16
 8001c96:	bd80      	pop	{r7, pc}
 8001c98:	40022000 	.word	0x40022000
 8001c9c:	40021000 	.word	0x40021000
 8001ca0:	00001388 	.word	0x00001388
 8001ca4:	fffff8ff 	.word	0xfffff8ff
 8001ca8:	080026ac 	.word	0x080026ac
 8001cac:	20000024 	.word	0x20000024

08001cb0 <HAL_RCC_GetSysClockFreq>:
 8001cb0:	b580      	push	{r7, lr}
 8001cb2:	b086      	sub	sp, #24
 8001cb4:	af00      	add	r7, sp, #0
 8001cb6:	2300      	movs	r3, #0
 8001cb8:	60fb      	str	r3, [r7, #12]
 8001cba:	2300      	movs	r3, #0
 8001cbc:	60bb      	str	r3, [r7, #8]
 8001cbe:	2300      	movs	r3, #0
 8001cc0:	617b      	str	r3, [r7, #20]
 8001cc2:	2300      	movs	r3, #0
 8001cc4:	607b      	str	r3, [r7, #4]
 8001cc6:	2300      	movs	r3, #0
 8001cc8:	613b      	str	r3, [r7, #16]
 8001cca:	4b2d      	ldr	r3, [pc, #180]	; (8001d80 <HAL_RCC_GetSysClockFreq+0xd0>)
 8001ccc:	685b      	ldr	r3, [r3, #4]
 8001cce:	60fb      	str	r3, [r7, #12]
 8001cd0:	68fb      	ldr	r3, [r7, #12]
 8001cd2:	220c      	movs	r2, #12
 8001cd4:	4013      	ands	r3, r2
 8001cd6:	2b0c      	cmp	r3, #12
 8001cd8:	d046      	beq.n	8001d68 <HAL_RCC_GetSysClockFreq+0xb8>
 8001cda:	d848      	bhi.n	8001d6e <HAL_RCC_GetSysClockFreq+0xbe>
 8001cdc:	2b04      	cmp	r3, #4
 8001cde:	d002      	beq.n	8001ce6 <HAL_RCC_GetSysClockFreq+0x36>
 8001ce0:	2b08      	cmp	r3, #8
 8001ce2:	d003      	beq.n	8001cec <HAL_RCC_GetSysClockFreq+0x3c>
 8001ce4:	e043      	b.n	8001d6e <HAL_RCC_GetSysClockFreq+0xbe>
 8001ce6:	4b27      	ldr	r3, [pc, #156]	; (8001d84 <HAL_RCC_GetSysClockFreq+0xd4>)
 8001ce8:	613b      	str	r3, [r7, #16]
 8001cea:	e043      	b.n	8001d74 <HAL_RCC_GetSysClockFreq+0xc4>
 8001cec:	68fb      	ldr	r3, [r7, #12]
 8001cee:	0c9b      	lsrs	r3, r3, #18
 8001cf0:	220f      	movs	r2, #15
 8001cf2:	4013      	ands	r3, r2
 8001cf4:	4a24      	ldr	r2, [pc, #144]	; (8001d88 <HAL_RCC_GetSysClockFreq+0xd8>)
 8001cf6:	5cd3      	ldrb	r3, [r2, r3]
 8001cf8:	607b      	str	r3, [r7, #4]
 8001cfa:	4b21      	ldr	r3, [pc, #132]	; (8001d80 <HAL_RCC_GetSysClockFreq+0xd0>)
 8001cfc:	6adb      	ldr	r3, [r3, #44]	; 0x2c
 8001cfe:	220f      	movs	r2, #15
 8001d00:	4013      	ands	r3, r2
 8001d02:	4a22      	ldr	r2, [pc, #136]	; (8001d8c <HAL_RCC_GetSysClockFreq+0xdc>)
 8001d04:	5cd3      	ldrb	r3, [r2, r3]
 8001d06:	60bb      	str	r3, [r7, #8]
 8001d08:	68fa      	ldr	r2, [r7, #12]
 8001d0a:	23c0      	movs	r3, #192	; 0xc0
 8001d0c:	025b      	lsls	r3, r3, #9
 8001d0e:	401a      	ands	r2, r3
 8001d10:	2380      	movs	r3, #128	; 0x80
 8001d12:	025b      	lsls	r3, r3, #9
 8001d14:	429a      	cmp	r2, r3
 8001d16:	d109      	bne.n	8001d2c <HAL_RCC_GetSysClockFreq+0x7c>
 8001d18:	68b9      	ldr	r1, [r7, #8]
 8001d1a:	481a      	ldr	r0, [pc, #104]	; (8001d84 <HAL_RCC_GetSysClockFreq+0xd4>)
 8001d1c:	f7fe f9f2 	bl	8000104 <__udivsi3>
 8001d20:	0003      	movs	r3, r0
 8001d22:	001a      	movs	r2, r3
 8001d24:	687b      	ldr	r3, [r7, #4]
 8001d26:	4353      	muls	r3, r2
 8001d28:	617b      	str	r3, [r7, #20]
 8001d2a:	e01a      	b.n	8001d62 <HAL_RCC_GetSysClockFreq+0xb2>
 8001d2c:	68fa      	ldr	r2, [r7, #12]
 8001d2e:	23c0      	movs	r3, #192	; 0xc0
 8001d30:	025b      	lsls	r3, r3, #9
 8001d32:	401a      	ands	r2, r3
 8001d34:	23c0      	movs	r3, #192	; 0xc0
 8001d36:	025b      	lsls	r3, r3, #9
 8001d38:	429a      	cmp	r2, r3
 8001d3a:	d109      	bne.n	8001d50 <HAL_RCC_GetSysClockFreq+0xa0>
 8001d3c:	68b9      	ldr	r1, [r7, #8]
 8001d3e:	4814      	ldr	r0, [pc, #80]	; (8001d90 <HAL_RCC_GetSysClockFreq+0xe0>)
 8001d40:	f7fe f9e0 	bl	8000104 <__udivsi3>
 8001d44:	0003      	movs	r3, r0
 8001d46:	001a      	movs	r2, r3
 8001d48:	687b      	ldr	r3, [r7, #4]
 8001d4a:	4353      	muls	r3, r2
 8001d4c:	617b      	str	r3, [r7, #20]
 8001d4e:	e008      	b.n	8001d62 <HAL_RCC_GetSysClockFreq+0xb2>
 8001d50:	68b9      	ldr	r1, [r7, #8]
 8001d52:	480c      	ldr	r0, [pc, #48]	; (8001d84 <HAL_RCC_GetSysClockFreq+0xd4>)
 8001d54:	f7fe f9d6 	bl	8000104 <__udivsi3>
 8001d58:	0003      	movs	r3, r0
 8001d5a:	001a      	movs	r2, r3
 8001d5c:	687b      	ldr	r3, [r7, #4]
 8001d5e:	4353      	muls	r3, r2
 8001d60:	617b      	str	r3, [r7, #20]
 8001d62:	697b      	ldr	r3, [r7, #20]
 8001d64:	613b      	str	r3, [r7, #16]
 8001d66:	e005      	b.n	8001d74 <HAL_RCC_GetSysClockFreq+0xc4>
 8001d68:	4b09      	ldr	r3, [pc, #36]	; (8001d90 <HAL_RCC_GetSysClockFreq+0xe0>)
 8001d6a:	613b      	str	r3, [r7, #16]
 8001d6c:	e002      	b.n	8001d74 <HAL_RCC_GetSysClockFreq+0xc4>
 8001d6e:	4b05      	ldr	r3, [pc, #20]	; (8001d84 <HAL_RCC_GetSysClockFreq+0xd4>)
 8001d70:	613b      	str	r3, [r7, #16]
 8001d72:	46c0      	nop			; (mov r8, r8)
 8001d74:	693b      	ldr	r3, [r7, #16]
 8001d76:	0018      	movs	r0, r3
 8001d78:	46bd      	mov	sp, r7
 8001d7a:	b006      	add	sp, #24
 8001d7c:	bd80      	pop	{r7, pc}
 8001d7e:	46c0      	nop			; (mov r8, r8)
 8001d80:	40021000 	.word	0x40021000
 8001d84:	007a1200 	.word	0x007a1200
 8001d88:	080026c4 	.word	0x080026c4
 8001d8c:	080026d4 	.word	0x080026d4
 8001d90:	02dc6c00 	.word	0x02dc6c00

08001d94 <HAL_RCC_GetHCLKFreq>:
 8001d94:	b580      	push	{r7, lr}
 8001d96:	af00      	add	r7, sp, #0
 8001d98:	4b02      	ldr	r3, [pc, #8]	; (8001da4 <HAL_RCC_GetHCLKFreq+0x10>)
 8001d9a:	681b      	ldr	r3, [r3, #0]
 8001d9c:	0018      	movs	r0, r3
 8001d9e:	46bd      	mov	sp, r7
 8001da0:	bd80      	pop	{r7, pc}
 8001da2:	46c0      	nop			; (mov r8, r8)
 8001da4:	20000024 	.word	0x20000024

08001da8 <HAL_RCC_GetPCLK1Freq>:
 8001da8:	b580      	push	{r7, lr}
 8001daa:	af00      	add	r7, sp, #0
 8001dac:	f7ff fff2 	bl	8001d94 <HAL_RCC_GetHCLKFreq>
 8001db0:	0001      	movs	r1, r0
 8001db2:	4b06      	ldr	r3, [pc, #24]	; (8001dcc <HAL_RCC_GetPCLK1Freq+0x24>)
 8001db4:	685b      	ldr	r3, [r3, #4]
 8001db6:	0a1b      	lsrs	r3, r3, #8
 8001db8:	2207      	movs	r2, #7
 8001dba:	4013      	ands	r3, r2
 8001dbc:	4a04      	ldr	r2, [pc, #16]	; (8001dd0 <HAL_RCC_GetPCLK1Freq+0x28>)
 8001dbe:	5cd3      	ldrb	r3, [r2, r3]
 8001dc0:	40d9      	lsrs	r1, r3
 8001dc2:	000b      	movs	r3, r1
 8001dc4:	0018      	movs	r0, r3
 8001dc6:	46bd      	mov	sp, r7
 8001dc8:	bd80      	pop	{r7, pc}
 8001dca:	46c0      	nop			; (mov r8, r8)
 8001dcc:	40021000 	.word	0x40021000
 8001dd0:	080026bc 	.word	0x080026bc

08001dd4 <HAL_TIM_Base_Init>:
 8001dd4:	b580      	push	{r7, lr}
 8001dd6:	b082      	sub	sp, #8
 8001dd8:	af00      	add	r7, sp, #0
 8001dda:	6078      	str	r0, [r7, #4]
 8001ddc:	687b      	ldr	r3, [r7, #4]
 8001dde:	2b00      	cmp	r3, #0
 8001de0:	d101      	bne.n	8001de6 <HAL_TIM_Base_Init+0x12>
 8001de2:	2301      	movs	r3, #1
 8001de4:	e042      	b.n	8001e6c <HAL_TIM_Base_Init+0x98>
 8001de6:	687b      	ldr	r3, [r7, #4]
 8001de8:	223d      	movs	r2, #61	; 0x3d
 8001dea:	5c9b      	ldrb	r3, [r3, r2]
 8001dec:	b2db      	uxtb	r3, r3
 8001dee:	2b00      	cmp	r3, #0
 8001df0:	d107      	bne.n	8001e02 <HAL_TIM_Base_Init+0x2e>
 8001df2:	687b      	ldr	r3, [r7, #4]
 8001df4:	223c      	movs	r2, #60	; 0x3c
 8001df6:	2100      	movs	r1, #0
 8001df8:	5499      	strb	r1, [r3, r2]
 8001dfa:	687b      	ldr	r3, [r7, #4]
 8001dfc:	0018      	movs	r0, r3
 8001dfe:	f7fe ff3d 	bl	8000c7c <HAL_TIM_Base_MspInit>
 8001e02:	687b      	ldr	r3, [r7, #4]
 8001e04:	223d      	movs	r2, #61	; 0x3d
 8001e06:	2102      	movs	r1, #2
 8001e08:	5499      	strb	r1, [r3, r2]
 8001e0a:	687b      	ldr	r3, [r7, #4]
 8001e0c:	681a      	ldr	r2, [r3, #0]
 8001e0e:	687b      	ldr	r3, [r7, #4]
 8001e10:	3304      	adds	r3, #4
 8001e12:	0019      	movs	r1, r3
 8001e14:	0010      	movs	r0, r2
 8001e16:	f000 fa89 	bl	800232c <TIM_Base_SetConfig>
 8001e1a:	687b      	ldr	r3, [r7, #4]
 8001e1c:	2246      	movs	r2, #70	; 0x46
 8001e1e:	2101      	movs	r1, #1
 8001e20:	5499      	strb	r1, [r3, r2]
 8001e22:	687b      	ldr	r3, [r7, #4]
 8001e24:	223e      	movs	r2, #62	; 0x3e
 8001e26:	2101      	movs	r1, #1
 8001e28:	5499      	strb	r1, [r3, r2]
 8001e2a:	687b      	ldr	r3, [r7, #4]
 8001e2c:	223f      	movs	r2, #63	; 0x3f
 8001e2e:	2101      	movs	r1, #1
 8001e30:	5499      	strb	r1, [r3, r2]
 8001e32:	687b      	ldr	r3, [r7, #4]
 8001e34:	2240      	movs	r2, #64	; 0x40
 8001e36:	2101      	movs	r1, #1
 8001e38:	5499      	strb	r1, [r3, r2]
 8001e3a:	687b      	ldr	r3, [r7, #4]
 8001e3c:	2241      	movs	r2, #65	; 0x41
 8001e3e:	2101      	movs	r1, #1
 8001e40:	5499      	strb	r1, [r3, r2]
 8001e42:	687b      	ldr	r3, [r7, #4]
 8001e44:	2242      	movs	r2, #66	; 0x42
 8001e46:	2101      	movs	r1, #1
 8001e48:	5499      	strb	r1, [r3, r2]
 8001e4a:	687b      	ldr	r3, [r7, #4]
 8001e4c:	2243      	movs	r2, #67	; 0x43
 8001e4e:	2101      	movs	r1, #1
 8001e50:	5499      	strb	r1, [r3, r2]
 8001e52:	687b      	ldr	r3, [r7, #4]
 8001e54:	2244      	movs	r2, #68	; 0x44
 8001e56:	2101      	movs	r1, #1
 8001e58:	5499      	strb	r1, [r3, r2]
 8001e5a:	687b      	ldr	r3, [r7, #4]
 8001e5c:	2245      	movs	r2, #69	; 0x45
 8001e5e:	2101      	movs	r1, #1
 8001e60:	5499      	strb	r1, [r3, r2]
 8001e62:	687b      	ldr	r3, [r7, #4]
 8001e64:	223d      	movs	r2, #61	; 0x3d
 8001e66:	2101      	movs	r1, #1
 8001e68:	5499      	strb	r1, [r3, r2]
 8001e6a:	2300      	movs	r3, #0
 8001e6c:	0018      	movs	r0, r3
 8001e6e:	46bd      	mov	sp, r7
 8001e70:	b002      	add	sp, #8
 8001e72:	bd80      	pop	{r7, pc}

08001e74 <HAL_TIM_Base_Start_IT>:
 8001e74:	b580      	push	{r7, lr}
 8001e76:	b084      	sub	sp, #16
 8001e78:	af00      	add	r7, sp, #0
 8001e7a:	6078      	str	r0, [r7, #4]
 8001e7c:	687b      	ldr	r3, [r7, #4]
 8001e7e:	223d      	movs	r2, #61	; 0x3d
 8001e80:	5c9b      	ldrb	r3, [r3, r2]
 8001e82:	b2db      	uxtb	r3, r3
 8001e84:	2b01      	cmp	r3, #1
 8001e86:	d001      	beq.n	8001e8c <HAL_TIM_Base_Start_IT+0x18>
 8001e88:	2301      	movs	r3, #1
 8001e8a:	e03b      	b.n	8001f04 <HAL_TIM_Base_Start_IT+0x90>
 8001e8c:	687b      	ldr	r3, [r7, #4]
 8001e8e:	223d      	movs	r2, #61	; 0x3d
 8001e90:	2102      	movs	r1, #2
 8001e92:	5499      	strb	r1, [r3, r2]
 8001e94:	687b      	ldr	r3, [r7, #4]
 8001e96:	681b      	ldr	r3, [r3, #0]
 8001e98:	68da      	ldr	r2, [r3, #12]
 8001e9a:	687b      	ldr	r3, [r7, #4]
 8001e9c:	681b      	ldr	r3, [r3, #0]
 8001e9e:	2101      	movs	r1, #1
 8001ea0:	430a      	orrs	r2, r1
 8001ea2:	60da      	str	r2, [r3, #12]
 8001ea4:	687b      	ldr	r3, [r7, #4]
 8001ea6:	681b      	ldr	r3, [r3, #0]
 8001ea8:	4a18      	ldr	r2, [pc, #96]	; (8001f0c <HAL_TIM_Base_Start_IT+0x98>)
 8001eaa:	4293      	cmp	r3, r2
 8001eac:	d00f      	beq.n	8001ece <HAL_TIM_Base_Start_IT+0x5a>
 8001eae:	687b      	ldr	r3, [r7, #4]
 8001eb0:	681a      	ldr	r2, [r3, #0]
 8001eb2:	2380      	movs	r3, #128	; 0x80
 8001eb4:	05db      	lsls	r3, r3, #23
 8001eb6:	429a      	cmp	r2, r3
 8001eb8:	d009      	beq.n	8001ece <HAL_TIM_Base_Start_IT+0x5a>
 8001eba:	687b      	ldr	r3, [r7, #4]
 8001ebc:	681b      	ldr	r3, [r3, #0]
 8001ebe:	4a14      	ldr	r2, [pc, #80]	; (8001f10 <HAL_TIM_Base_Start_IT+0x9c>)
 8001ec0:	4293      	cmp	r3, r2
 8001ec2:	d004      	beq.n	8001ece <HAL_TIM_Base_Start_IT+0x5a>
 8001ec4:	687b      	ldr	r3, [r7, #4]
 8001ec6:	681b      	ldr	r3, [r3, #0]
 8001ec8:	4a12      	ldr	r2, [pc, #72]	; (8001f14 <HAL_TIM_Base_Start_IT+0xa0>)
 8001eca:	4293      	cmp	r3, r2
 8001ecc:	d111      	bne.n	8001ef2 <HAL_TIM_Base_Start_IT+0x7e>
 8001ece:	687b      	ldr	r3, [r7, #4]
 8001ed0:	681b      	ldr	r3, [r3, #0]
 8001ed2:	689b      	ldr	r3, [r3, #8]
 8001ed4:	2207      	movs	r2, #7
 8001ed6:	4013      	ands	r3, r2
 8001ed8:	60fb      	str	r3, [r7, #12]
 8001eda:	68fb      	ldr	r3, [r7, #12]
 8001edc:	2b06      	cmp	r3, #6
 8001ede:	d010      	beq.n	8001f02 <HAL_TIM_Base_Start_IT+0x8e>
 8001ee0:	687b      	ldr	r3, [r7, #4]
 8001ee2:	681b      	ldr	r3, [r3, #0]
 8001ee4:	681a      	ldr	r2, [r3, #0]
 8001ee6:	687b      	ldr	r3, [r7, #4]
 8001ee8:	681b      	ldr	r3, [r3, #0]
 8001eea:	2101      	movs	r1, #1
 8001eec:	430a      	orrs	r2, r1
 8001eee:	601a      	str	r2, [r3, #0]
 8001ef0:	e007      	b.n	8001f02 <HAL_TIM_Base_Start_IT+0x8e>
 8001ef2:	687b      	ldr	r3, [r7, #4]
 8001ef4:	681b      	ldr	r3, [r3, #0]
 8001ef6:	681a      	ldr	r2, [r3, #0]
 8001ef8:	687b      	ldr	r3, [r7, #4]
 8001efa:	681b      	ldr	r3, [r3, #0]
 8001efc:	2101      	movs	r1, #1
 8001efe:	430a      	orrs	r2, r1
 8001f00:	601a      	str	r2, [r3, #0]
 8001f02:	2300      	movs	r3, #0
 8001f04:	0018      	movs	r0, r3
 8001f06:	46bd      	mov	sp, r7
 8001f08:	b004      	add	sp, #16
 8001f0a:	bd80      	pop	{r7, pc}
 8001f0c:	40012c00 	.word	0x40012c00
 8001f10:	40000400 	.word	0x40000400
 8001f14:	40014000 	.word	0x40014000

08001f18 <HAL_TIM_IRQHandler>:
 8001f18:	b580      	push	{r7, lr}
 8001f1a:	b082      	sub	sp, #8
 8001f1c:	af00      	add	r7, sp, #0
 8001f1e:	6078      	str	r0, [r7, #4]
 8001f20:	687b      	ldr	r3, [r7, #4]
 8001f22:	681b      	ldr	r3, [r3, #0]
 8001f24:	691b      	ldr	r3, [r3, #16]
 8001f26:	2202      	movs	r2, #2
 8001f28:	4013      	ands	r3, r2
 8001f2a:	2b02      	cmp	r3, #2
 8001f2c:	d124      	bne.n	8001f78 <HAL_TIM_IRQHandler+0x60>
 8001f2e:	687b      	ldr	r3, [r7, #4]
 8001f30:	681b      	ldr	r3, [r3, #0]
 8001f32:	68db      	ldr	r3, [r3, #12]
 8001f34:	2202      	movs	r2, #2
 8001f36:	4013      	ands	r3, r2
 8001f38:	2b02      	cmp	r3, #2
 8001f3a:	d11d      	bne.n	8001f78 <HAL_TIM_IRQHandler+0x60>
 8001f3c:	687b      	ldr	r3, [r7, #4]
 8001f3e:	681b      	ldr	r3, [r3, #0]
 8001f40:	2203      	movs	r2, #3
 8001f42:	4252      	negs	r2, r2
 8001f44:	611a      	str	r2, [r3, #16]
 8001f46:	687b      	ldr	r3, [r7, #4]
 8001f48:	2201      	movs	r2, #1
 8001f4a:	771a      	strb	r2, [r3, #28]
 8001f4c:	687b      	ldr	r3, [r7, #4]
 8001f4e:	681b      	ldr	r3, [r3, #0]
 8001f50:	699b      	ldr	r3, [r3, #24]
 8001f52:	2203      	movs	r2, #3
 8001f54:	4013      	ands	r3, r2
 8001f56:	d004      	beq.n	8001f62 <HAL_TIM_IRQHandler+0x4a>
 8001f58:	687b      	ldr	r3, [r7, #4]
 8001f5a:	0018      	movs	r0, r3
 8001f5c:	f000 f9ce 	bl	80022fc <HAL_TIM_IC_CaptureCallback>
 8001f60:	e007      	b.n	8001f72 <HAL_TIM_IRQHandler+0x5a>
 8001f62:	687b      	ldr	r3, [r7, #4]
 8001f64:	0018      	movs	r0, r3
 8001f66:	f000 f9c1 	bl	80022ec <HAL_TIM_OC_DelayElapsedCallback>
 8001f6a:	687b      	ldr	r3, [r7, #4]
 8001f6c:	0018      	movs	r0, r3
 8001f6e:	f000 f9cd 	bl	800230c <HAL_TIM_PWM_PulseFinishedCallback>
 8001f72:	687b      	ldr	r3, [r7, #4]
 8001f74:	2200      	movs	r2, #0
 8001f76:	771a      	strb	r2, [r3, #28]
 8001f78:	687b      	ldr	r3, [r7, #4]
 8001f7a:	681b      	ldr	r3, [r3, #0]
 8001f7c:	691b      	ldr	r3, [r3, #16]
 8001f7e:	2204      	movs	r2, #4
 8001f80:	4013      	ands	r3, r2
 8001f82:	2b04      	cmp	r3, #4
 8001f84:	d125      	bne.n	8001fd2 <HAL_TIM_IRQHandler+0xba>
 8001f86:	687b      	ldr	r3, [r7, #4]
 8001f88:	681b      	ldr	r3, [r3, #0]
 8001f8a:	68db      	ldr	r3, [r3, #12]
 8001f8c:	2204      	movs	r2, #4
 8001f8e:	4013      	ands	r3, r2
 8001f90:	2b04      	cmp	r3, #4
 8001f92:	d11e      	bne.n	8001fd2 <HAL_TIM_IRQHandler+0xba>
 8001f94:	687b      	ldr	r3, [r7, #4]
 8001f96:	681b      	ldr	r3, [r3, #0]
 8001f98:	2205      	movs	r2, #5
 8001f9a:	4252      	negs	r2, r2
 8001f9c:	611a      	str	r2, [r3, #16]
 8001f9e:	687b      	ldr	r3, [r7, #4]
 8001fa0:	2202      	movs	r2, #2
 8001fa2:	771a      	strb	r2, [r3, #28]
 8001fa4:	687b      	ldr	r3, [r7, #4]
 8001fa6:	681b      	ldr	r3, [r3, #0]
 8001fa8:	699a      	ldr	r2, [r3, #24]
 8001faa:	23c0      	movs	r3, #192	; 0xc0
 8001fac:	009b      	lsls	r3, r3, #2
 8001fae:	4013      	ands	r3, r2
 8001fb0:	d004      	beq.n	8001fbc <HAL_TIM_IRQHandler+0xa4>
 8001fb2:	687b      	ldr	r3, [r7, #4]
 8001fb4:	0018      	movs	r0, r3
 8001fb6:	f000 f9a1 	bl	80022fc <HAL_TIM_IC_CaptureCallback>
 8001fba:	e007      	b.n	8001fcc <HAL_TIM_IRQHandler+0xb4>
 8001fbc:	687b      	ldr	r3, [r7, #4]
 8001fbe:	0018      	movs	r0, r3
 8001fc0:	f000 f994 	bl	80022ec <HAL_TIM_OC_DelayElapsedCallback>
 8001fc4:	687b      	ldr	r3, [r7, #4]
 8001fc6:	0018      	movs	r0, r3
 8001fc8:	f000 f9a0 	bl	800230c <HAL_TIM_PWM_PulseFinishedCallback>
 8001fcc:	687b      	ldr	r3, [r7, #4]
 8001fce:	2200      	movs	r2, #0
 8001fd0:	771a      	strb	r2, [r3, #28]
 8001fd2:	687b      	ldr	r3, [r7, #4]
 8001fd4:	681b      	ldr	r3, [r3, #0]
 8001fd6:	691b      	ldr	r3, [r3, #16]
 8001fd8:	2208      	movs	r2, #8
 8001fda:	4013      	ands	r3, r2
 8001fdc:	2b08      	cmp	r3, #8
 8001fde:	d124      	bne.n	800202a <HAL_TIM_IRQHandler+0x112>
 8001fe0:	687b      	ldr	r3, [r7, #4]
 8001fe2:	681b      	ldr	r3, [r3, #0]
 8001fe4:	68db      	ldr	r3, [r3, #12]
 8001fe6:	2208      	movs	r2, #8
 8001fe8:	4013      	ands	r3, r2
 8001fea:	2b08      	cmp	r3, #8
 8001fec:	d11d      	bne.n	800202a <HAL_TIM_IRQHandler+0x112>
 8001fee:	687b      	ldr	r3, [r7, #4]
 8001ff0:	681b      	ldr	r3, [r3, #0]
 8001ff2:	2209      	movs	r2, #9
 8001ff4:	4252      	negs	r2, r2
 8001ff6:	611a      	str	r2, [r3, #16]
 8001ff8:	687b      	ldr	r3, [r7, #4]
 8001ffa:	2204      	movs	r2, #4
 8001ffc:	771a      	strb	r2, [r3, #28]
 8001ffe:	687b      	ldr	r3, [r7, #4]
 8002000:	681b      	ldr	r3, [r3, #0]
 8002002:	69db      	ldr	r3, [r3, #28]
 8002004:	2203      	movs	r2, #3
 8002006:	4013      	ands	r3, r2
 8002008:	d004      	beq.n	8002014 <HAL_TIM_IRQHandler+0xfc>
 800200a:	687b      	ldr	r3, [r7, #4]
 800200c:	0018      	movs	r0, r3
 800200e:	f000 f975 	bl	80022fc <HAL_TIM_IC_CaptureCallback>
 8002012:	e007      	b.n	8002024 <HAL_TIM_IRQHandler+0x10c>
 8002014:	687b      	ldr	r3, [r7, #4]
 8002016:	0018      	movs	r0, r3
 8002018:	f000 f968 	bl	80022ec <HAL_TIM_OC_DelayElapsedCallback>
 800201c:	687b      	ldr	r3, [r7, #4]
 800201e:	0018      	movs	r0, r3
 8002020:	f000 f974 	bl	800230c <HAL_TIM_PWM_PulseFinishedCallback>
 8002024:	687b      	ldr	r3, [r7, #4]
 8002026:	2200      	movs	r2, #0
 8002028:	771a      	strb	r2, [r3, #28]
 800202a:	687b      	ldr	r3, [r7, #4]
 800202c:	681b      	ldr	r3, [r3, #0]
 800202e:	691b      	ldr	r3, [r3, #16]
 8002030:	2210      	movs	r2, #16
 8002032:	4013      	ands	r3, r2
 8002034:	2b10      	cmp	r3, #16
 8002036:	d125      	bne.n	8002084 <HAL_TIM_IRQHandler+0x16c>
 8002038:	687b      	ldr	r3, [r7, #4]
 800203a:	681b      	ldr	r3, [r3, #0]
 800203c:	68db      	ldr	r3, [r3, #12]
 800203e:	2210      	movs	r2, #16
 8002040:	4013      	ands	r3, r2
 8002042:	2b10      	cmp	r3, #16
 8002044:	d11e      	bne.n	8002084 <HAL_TIM_IRQHandler+0x16c>
 8002046:	687b      	ldr	r3, [r7, #4]
 8002048:	681b      	ldr	r3, [r3, #0]
 800204a:	2211      	movs	r2, #17
 800204c:	4252      	negs	r2, r2
 800204e:	611a      	str	r2, [r3, #16]
 8002050:	687b      	ldr	r3, [r7, #4]
 8002052:	2208      	movs	r2, #8
 8002054:	771a      	strb	r2, [r3, #28]
 8002056:	687b      	ldr	r3, [r7, #4]
 8002058:	681b      	ldr	r3, [r3, #0]
 800205a:	69da      	ldr	r2, [r3, #28]
 800205c:	23c0      	movs	r3, #192	; 0xc0
 800205e:	009b      	lsls	r3, r3, #2
 8002060:	4013      	ands	r3, r2
 8002062:	d004      	beq.n	800206e <HAL_TIM_IRQHandler+0x156>
 8002064:	687b      	ldr	r3, [r7, #4]
 8002066:	0018      	movs	r0, r3
 8002068:	f000 f948 	bl	80022fc <HAL_TIM_IC_CaptureCallback>
 800206c:	e007      	b.n	800207e <HAL_TIM_IRQHandler+0x166>
 800206e:	687b      	ldr	r3, [r7, #4]
 8002070:	0018      	movs	r0, r3
 8002072:	f000 f93b 	bl	80022ec <HAL_TIM_OC_DelayElapsedCallback>
 8002076:	687b      	ldr	r3, [r7, #4]
 8002078:	0018      	movs	r0, r3
 800207a:	f000 f947 	bl	800230c <HAL_TIM_PWM_PulseFinishedCallback>
 800207e:	687b      	ldr	r3, [r7, #4]
 8002080:	2200      	movs	r2, #0
 8002082:	771a      	strb	r2, [r3, #28]
 8002084:	687b      	ldr	r3, [r7, #4]
 8002086:	681b      	ldr	r3, [r3, #0]
 8002088:	691b      	ldr	r3, [r3, #16]
 800208a:	2201      	movs	r2, #1
 800208c:	4013      	ands	r3, r2
 800208e:	2b01      	cmp	r3, #1
 8002090:	d10f      	bne.n	80020b2 <HAL_TIM_IRQHandler+0x19a>
 8002092:	687b      	ldr	r3, [r7, #4]
 8002094:	681b      	ldr	r3, [r3, #0]
 8002096:	68db      	ldr	r3, [r3, #12]
 8002098:	2201      	movs	r2, #1
 800209a:	4013      	ands	r3, r2
 800209c:	2b01      	cmp	r3, #1
 800209e:	d108      	bne.n	80020b2 <HAL_TIM_IRQHandler+0x19a>
 80020a0:	687b      	ldr	r3, [r7, #4]
 80020a2:	681b      	ldr	r3, [r3, #0]
 80020a4:	2202      	movs	r2, #2
 80020a6:	4252      	negs	r2, r2
 80020a8:	611a      	str	r2, [r3, #16]
 80020aa:	687b      	ldr	r3, [r7, #4]
 80020ac:	0018      	movs	r0, r3
 80020ae:	f7fe fda7 	bl	8000c00 <HAL_TIM_PeriodElapsedCallback>
 80020b2:	687b      	ldr	r3, [r7, #4]
 80020b4:	681b      	ldr	r3, [r3, #0]
 80020b6:	691b      	ldr	r3, [r3, #16]
 80020b8:	2280      	movs	r2, #128	; 0x80
 80020ba:	4013      	ands	r3, r2
 80020bc:	2b80      	cmp	r3, #128	; 0x80
 80020be:	d10f      	bne.n	80020e0 <HAL_TIM_IRQHandler+0x1c8>
 80020c0:	687b      	ldr	r3, [r7, #4]
 80020c2:	681b      	ldr	r3, [r3, #0]
 80020c4:	68db      	ldr	r3, [r3, #12]
 80020c6:	2280      	movs	r2, #128	; 0x80
 80020c8:	4013      	ands	r3, r2
 80020ca:	2b80      	cmp	r3, #128	; 0x80
 80020cc:	d108      	bne.n	80020e0 <HAL_TIM_IRQHandler+0x1c8>
 80020ce:	687b      	ldr	r3, [r7, #4]
 80020d0:	681b      	ldr	r3, [r3, #0]
 80020d2:	2281      	movs	r2, #129	; 0x81
 80020d4:	4252      	negs	r2, r2
 80020d6:	611a      	str	r2, [r3, #16]
 80020d8:	687b      	ldr	r3, [r7, #4]
 80020da:	0018      	movs	r0, r3
 80020dc:	f000 faa6 	bl	800262c <HAL_TIMEx_BreakCallback>
 80020e0:	687b      	ldr	r3, [r7, #4]
 80020e2:	681b      	ldr	r3, [r3, #0]
 80020e4:	691b      	ldr	r3, [r3, #16]
 80020e6:	2240      	movs	r2, #64	; 0x40
 80020e8:	4013      	ands	r3, r2
 80020ea:	2b40      	cmp	r3, #64	; 0x40
 80020ec:	d10f      	bne.n	800210e <HAL_TIM_IRQHandler+0x1f6>
 80020ee:	687b      	ldr	r3, [r7, #4]
 80020f0:	681b      	ldr	r3, [r3, #0]
 80020f2:	68db      	ldr	r3, [r3, #12]
 80020f4:	2240      	movs	r2, #64	; 0x40
 80020f6:	4013      	ands	r3, r2
 80020f8:	2b40      	cmp	r3, #64	; 0x40
 80020fa:	d108      	bne.n	800210e <HAL_TIM_IRQHandler+0x1f6>
 80020fc:	687b      	ldr	r3, [r7, #4]
 80020fe:	681b      	ldr	r3, [r3, #0]
 8002100:	2241      	movs	r2, #65	; 0x41
 8002102:	4252      	negs	r2, r2
 8002104:	611a      	str	r2, [r3, #16]
 8002106:	687b      	ldr	r3, [r7, #4]
 8002108:	0018      	movs	r0, r3
 800210a:	f000 f907 	bl	800231c <HAL_TIM_TriggerCallback>
 800210e:	687b      	ldr	r3, [r7, #4]
 8002110:	681b      	ldr	r3, [r3, #0]
 8002112:	691b      	ldr	r3, [r3, #16]
 8002114:	2220      	movs	r2, #32
 8002116:	4013      	ands	r3, r2
 8002118:	2b20      	cmp	r3, #32
 800211a:	d10f      	bne.n	800213c <HAL_TIM_IRQHandler+0x224>
 800211c:	687b      	ldr	r3, [r7, #4]
 800211e:	681b      	ldr	r3, [r3, #0]
 8002120:	68db      	ldr	r3, [r3, #12]
 8002122:	2220      	movs	r2, #32
 8002124:	4013      	ands	r3, r2
 8002126:	2b20      	cmp	r3, #32
 8002128:	d108      	bne.n	800213c <HAL_TIM_IRQHandler+0x224>
 800212a:	687b      	ldr	r3, [r7, #4]
 800212c:	681b      	ldr	r3, [r3, #0]
 800212e:	2221      	movs	r2, #33	; 0x21
 8002130:	4252      	negs	r2, r2
 8002132:	611a      	str	r2, [r3, #16]
 8002134:	687b      	ldr	r3, [r7, #4]
 8002136:	0018      	movs	r0, r3
 8002138:	f000 fa70 	bl	800261c <HAL_TIMEx_CommutCallback>
 800213c:	46c0      	nop			; (mov r8, r8)
 800213e:	46bd      	mov	sp, r7
 8002140:	b002      	add	sp, #8
 8002142:	bd80      	pop	{r7, pc}

08002144 <HAL_TIM_ConfigClockSource>:
 8002144:	b580      	push	{r7, lr}
 8002146:	b084      	sub	sp, #16
 8002148:	af00      	add	r7, sp, #0
 800214a:	6078      	str	r0, [r7, #4]
 800214c:	6039      	str	r1, [r7, #0]
 800214e:	230f      	movs	r3, #15
 8002150:	18fb      	adds	r3, r7, r3
 8002152:	2200      	movs	r2, #0
 8002154:	701a      	strb	r2, [r3, #0]
 8002156:	687b      	ldr	r3, [r7, #4]
 8002158:	223c      	movs	r2, #60	; 0x3c
 800215a:	5c9b      	ldrb	r3, [r3, r2]
 800215c:	2b01      	cmp	r3, #1
 800215e:	d101      	bne.n	8002164 <HAL_TIM_ConfigClockSource+0x20>
 8002160:	2302      	movs	r3, #2
 8002162:	e0bc      	b.n	80022de <HAL_TIM_ConfigClockSource+0x19a>
 8002164:	687b      	ldr	r3, [r7, #4]
 8002166:	223c      	movs	r2, #60	; 0x3c
 8002168:	2101      	movs	r1, #1
 800216a:	5499      	strb	r1, [r3, r2]
 800216c:	687b      	ldr	r3, [r7, #4]
 800216e:	223d      	movs	r2, #61	; 0x3d
 8002170:	2102      	movs	r1, #2
 8002172:	5499      	strb	r1, [r3, r2]
 8002174:	687b      	ldr	r3, [r7, #4]
 8002176:	681b      	ldr	r3, [r3, #0]
 8002178:	689b      	ldr	r3, [r3, #8]
 800217a:	60bb      	str	r3, [r7, #8]
 800217c:	68bb      	ldr	r3, [r7, #8]
 800217e:	2277      	movs	r2, #119	; 0x77
 8002180:	4393      	bics	r3, r2
 8002182:	60bb      	str	r3, [r7, #8]
 8002184:	68bb      	ldr	r3, [r7, #8]
 8002186:	4a58      	ldr	r2, [pc, #352]	; (80022e8 <HAL_TIM_ConfigClockSource+0x1a4>)
 8002188:	4013      	ands	r3, r2
 800218a:	60bb      	str	r3, [r7, #8]
 800218c:	687b      	ldr	r3, [r7, #4]
 800218e:	681b      	ldr	r3, [r3, #0]
 8002190:	68ba      	ldr	r2, [r7, #8]
 8002192:	609a      	str	r2, [r3, #8]
 8002194:	683b      	ldr	r3, [r7, #0]
 8002196:	681b      	ldr	r3, [r3, #0]
 8002198:	2280      	movs	r2, #128	; 0x80
 800219a:	0192      	lsls	r2, r2, #6
 800219c:	4293      	cmp	r3, r2
 800219e:	d040      	beq.n	8002222 <HAL_TIM_ConfigClockSource+0xde>
 80021a0:	2280      	movs	r2, #128	; 0x80
 80021a2:	0192      	lsls	r2, r2, #6
 80021a4:	4293      	cmp	r3, r2
 80021a6:	d900      	bls.n	80021aa <HAL_TIM_ConfigClockSource+0x66>
 80021a8:	e088      	b.n	80022bc <HAL_TIM_ConfigClockSource+0x178>
 80021aa:	2280      	movs	r2, #128	; 0x80
 80021ac:	0152      	lsls	r2, r2, #5
 80021ae:	4293      	cmp	r3, r2
 80021b0:	d100      	bne.n	80021b4 <HAL_TIM_ConfigClockSource+0x70>
 80021b2:	e088      	b.n	80022c6 <HAL_TIM_ConfigClockSource+0x182>
 80021b4:	2280      	movs	r2, #128	; 0x80
 80021b6:	0152      	lsls	r2, r2, #5
 80021b8:	4293      	cmp	r3, r2
 80021ba:	d900      	bls.n	80021be <HAL_TIM_ConfigClockSource+0x7a>
 80021bc:	e07e      	b.n	80022bc <HAL_TIM_ConfigClockSource+0x178>
 80021be:	2b70      	cmp	r3, #112	; 0x70
 80021c0:	d018      	beq.n	80021f4 <HAL_TIM_ConfigClockSource+0xb0>
 80021c2:	d900      	bls.n	80021c6 <HAL_TIM_ConfigClockSource+0x82>
 80021c4:	e07a      	b.n	80022bc <HAL_TIM_ConfigClockSource+0x178>
 80021c6:	2b60      	cmp	r3, #96	; 0x60
 80021c8:	d04f      	beq.n	800226a <HAL_TIM_ConfigClockSource+0x126>
 80021ca:	d900      	bls.n	80021ce <HAL_TIM_ConfigClockSource+0x8a>
 80021cc:	e076      	b.n	80022bc <HAL_TIM_ConfigClockSource+0x178>
 80021ce:	2b50      	cmp	r3, #80	; 0x50
 80021d0:	d03b      	beq.n	800224a <HAL_TIM_ConfigClockSource+0x106>
 80021d2:	d900      	bls.n	80021d6 <HAL_TIM_ConfigClockSource+0x92>
 80021d4:	e072      	b.n	80022bc <HAL_TIM_ConfigClockSource+0x178>
 80021d6:	2b40      	cmp	r3, #64	; 0x40
 80021d8:	d057      	beq.n	800228a <HAL_TIM_ConfigClockSource+0x146>
 80021da:	d900      	bls.n	80021de <HAL_TIM_ConfigClockSource+0x9a>
 80021dc:	e06e      	b.n	80022bc <HAL_TIM_ConfigClockSource+0x178>
 80021de:	2b30      	cmp	r3, #48	; 0x30
 80021e0:	d063      	beq.n	80022aa <HAL_TIM_ConfigClockSource+0x166>
 80021e2:	d86b      	bhi.n	80022bc <HAL_TIM_ConfigClockSource+0x178>
 80021e4:	2b20      	cmp	r3, #32
 80021e6:	d060      	beq.n	80022aa <HAL_TIM_ConfigClockSource+0x166>
 80021e8:	d868      	bhi.n	80022bc <HAL_TIM_ConfigClockSource+0x178>
 80021ea:	2b00      	cmp	r3, #0
 80021ec:	d05d      	beq.n	80022aa <HAL_TIM_ConfigClockSource+0x166>
 80021ee:	2b10      	cmp	r3, #16
 80021f0:	d05b      	beq.n	80022aa <HAL_TIM_ConfigClockSource+0x166>
 80021f2:	e063      	b.n	80022bc <HAL_TIM_ConfigClockSource+0x178>
 80021f4:	687b      	ldr	r3, [r7, #4]
 80021f6:	6818      	ldr	r0, [r3, #0]
 80021f8:	683b      	ldr	r3, [r7, #0]
 80021fa:	6899      	ldr	r1, [r3, #8]
 80021fc:	683b      	ldr	r3, [r7, #0]
 80021fe:	685a      	ldr	r2, [r3, #4]
 8002200:	683b      	ldr	r3, [r7, #0]
 8002202:	68db      	ldr	r3, [r3, #12]
 8002204:	f000 f98c 	bl	8002520 <TIM_ETR_SetConfig>
 8002208:	687b      	ldr	r3, [r7, #4]
 800220a:	681b      	ldr	r3, [r3, #0]
 800220c:	689b      	ldr	r3, [r3, #8]
 800220e:	60bb      	str	r3, [r7, #8]
 8002210:	68bb      	ldr	r3, [r7, #8]
 8002212:	2277      	movs	r2, #119	; 0x77
 8002214:	4313      	orrs	r3, r2
 8002216:	60bb      	str	r3, [r7, #8]
 8002218:	687b      	ldr	r3, [r7, #4]
 800221a:	681b      	ldr	r3, [r3, #0]
 800221c:	68ba      	ldr	r2, [r7, #8]
 800221e:	609a      	str	r2, [r3, #8]
 8002220:	e052      	b.n	80022c8 <HAL_TIM_ConfigClockSource+0x184>
 8002222:	687b      	ldr	r3, [r7, #4]
 8002224:	6818      	ldr	r0, [r3, #0]
 8002226:	683b      	ldr	r3, [r7, #0]
 8002228:	6899      	ldr	r1, [r3, #8]
 800222a:	683b      	ldr	r3, [r7, #0]
 800222c:	685a      	ldr	r2, [r3, #4]
 800222e:	683b      	ldr	r3, [r7, #0]
 8002230:	68db      	ldr	r3, [r3, #12]
 8002232:	f000 f975 	bl	8002520 <TIM_ETR_SetConfig>
 8002236:	687b      	ldr	r3, [r7, #4]
 8002238:	681b      	ldr	r3, [r3, #0]
 800223a:	689a      	ldr	r2, [r3, #8]
 800223c:	687b      	ldr	r3, [r7, #4]
 800223e:	681b      	ldr	r3, [r3, #0]
 8002240:	2180      	movs	r1, #128	; 0x80
 8002242:	01c9      	lsls	r1, r1, #7
 8002244:	430a      	orrs	r2, r1
 8002246:	609a      	str	r2, [r3, #8]
 8002248:	e03e      	b.n	80022c8 <HAL_TIM_ConfigClockSource+0x184>
 800224a:	687b      	ldr	r3, [r7, #4]
 800224c:	6818      	ldr	r0, [r3, #0]
 800224e:	683b      	ldr	r3, [r7, #0]
 8002250:	6859      	ldr	r1, [r3, #4]
 8002252:	683b      	ldr	r3, [r7, #0]
 8002254:	68db      	ldr	r3, [r3, #12]
 8002256:	001a      	movs	r2, r3
 8002258:	f000 f8e8 	bl	800242c <TIM_TI1_ConfigInputStage>
 800225c:	687b      	ldr	r3, [r7, #4]
 800225e:	681b      	ldr	r3, [r3, #0]
 8002260:	2150      	movs	r1, #80	; 0x50
 8002262:	0018      	movs	r0, r3
 8002264:	f000 f942 	bl	80024ec <TIM_ITRx_SetConfig>
 8002268:	e02e      	b.n	80022c8 <HAL_TIM_ConfigClockSource+0x184>
 800226a:	687b      	ldr	r3, [r7, #4]
 800226c:	6818      	ldr	r0, [r3, #0]
 800226e:	683b      	ldr	r3, [r7, #0]
 8002270:	6859      	ldr	r1, [r3, #4]
 8002272:	683b      	ldr	r3, [r7, #0]
 8002274:	68db      	ldr	r3, [r3, #12]
 8002276:	001a      	movs	r2, r3
 8002278:	f000 f906 	bl	8002488 <TIM_TI2_ConfigInputStage>
 800227c:	687b      	ldr	r3, [r7, #4]
 800227e:	681b      	ldr	r3, [r3, #0]
 8002280:	2160      	movs	r1, #96	; 0x60
 8002282:	0018      	movs	r0, r3
 8002284:	f000 f932 	bl	80024ec <TIM_ITRx_SetConfig>
 8002288:	e01e      	b.n	80022c8 <HAL_TIM_ConfigClockSource+0x184>
 800228a:	687b      	ldr	r3, [r7, #4]
 800228c:	6818      	ldr	r0, [r3, #0]
 800228e:	683b      	ldr	r3, [r7, #0]
 8002290:	6859      	ldr	r1, [r3, #4]
 8002292:	683b      	ldr	r3, [r7, #0]
 8002294:	68db      	ldr	r3, [r3, #12]
 8002296:	001a      	movs	r2, r3
 8002298:	f000 f8c8 	bl	800242c <TIM_TI1_ConfigInputStage>
 800229c:	687b      	ldr	r3, [r7, #4]
 800229e:	681b      	ldr	r3, [r3, #0]
 80022a0:	2140      	movs	r1, #64	; 0x40
 80022a2:	0018      	movs	r0, r3
 80022a4:	f000 f922 	bl	80024ec <TIM_ITRx_SetConfig>
 80022a8:	e00e      	b.n	80022c8 <HAL_TIM_ConfigClockSource+0x184>
 80022aa:	687b      	ldr	r3, [r7, #4]
 80022ac:	681a      	ldr	r2, [r3, #0]
 80022ae:	683b      	ldr	r3, [r7, #0]
 80022b0:	681b      	ldr	r3, [r3, #0]
 80022b2:	0019      	movs	r1, r3
 80022b4:	0010      	movs	r0, r2
 80022b6:	f000 f919 	bl	80024ec <TIM_ITRx_SetConfig>
 80022ba:	e005      	b.n	80022c8 <HAL_TIM_ConfigClockSource+0x184>
 80022bc:	230f      	movs	r3, #15
 80022be:	18fb      	adds	r3, r7, r3
 80022c0:	2201      	movs	r2, #1
 80022c2:	701a      	strb	r2, [r3, #0]
 80022c4:	e000      	b.n	80022c8 <HAL_TIM_ConfigClockSource+0x184>
 80022c6:	46c0      	nop			; (mov r8, r8)
 80022c8:	687b      	ldr	r3, [r7, #4]
 80022ca:	223d      	movs	r2, #61	; 0x3d
 80022cc:	2101      	movs	r1, #1
 80022ce:	5499      	strb	r1, [r3, r2]
 80022d0:	687b      	ldr	r3, [r7, #4]
 80022d2:	223c      	movs	r2, #60	; 0x3c
 80022d4:	2100      	movs	r1, #0
 80022d6:	5499      	strb	r1, [r3, r2]
 80022d8:	230f      	movs	r3, #15
 80022da:	18fb      	adds	r3, r7, r3
 80022dc:	781b      	ldrb	r3, [r3, #0]
 80022de:	0018      	movs	r0, r3
 80022e0:	46bd      	mov	sp, r7
 80022e2:	b004      	add	sp, #16
 80022e4:	bd80      	pop	{r7, pc}
 80022e6:	46c0      	nop			; (mov r8, r8)
 80022e8:	ffff00ff 	.word	0xffff00ff

080022ec <HAL_TIM_OC_DelayElapsedCallback>:
 80022ec:	b580      	push	{r7, lr}
 80022ee:	b082      	sub	sp, #8
 80022f0:	af00      	add	r7, sp, #0
 80022f2:	6078      	str	r0, [r7, #4]
 80022f4:	46c0      	nop			; (mov r8, r8)
 80022f6:	46bd      	mov	sp, r7
 80022f8:	b002      	add	sp, #8
 80022fa:	bd80      	pop	{r7, pc}

080022fc <HAL_TIM_IC_CaptureCallback>:
 80022fc:	b580      	push	{r7, lr}
 80022fe:	b082      	sub	sp, #8
 8002300:	af00      	add	r7, sp, #0
 8002302:	6078      	str	r0, [r7, #4]
 8002304:	46c0      	nop			; (mov r8, r8)
 8002306:	46bd      	mov	sp, r7
 8002308:	b002      	add	sp, #8
 800230a:	bd80      	pop	{r7, pc}

0800230c <HAL_TIM_PWM_PulseFinishedCallback>:
 800230c:	b580      	push	{r7, lr}
 800230e:	b082      	sub	sp, #8
 8002310:	af00      	add	r7, sp, #0
 8002312:	6078      	str	r0, [r7, #4]
 8002314:	46c0      	nop			; (mov r8, r8)
 8002316:	46bd      	mov	sp, r7
 8002318:	b002      	add	sp, #8
 800231a:	bd80      	pop	{r7, pc}

0800231c <HAL_TIM_TriggerCallback>:
 800231c:	b580      	push	{r7, lr}
 800231e:	b082      	sub	sp, #8
 8002320:	af00      	add	r7, sp, #0
 8002322:	6078      	str	r0, [r7, #4]
 8002324:	46c0      	nop			; (mov r8, r8)
 8002326:	46bd      	mov	sp, r7
 8002328:	b002      	add	sp, #8
 800232a:	bd80      	pop	{r7, pc}

0800232c <TIM_Base_SetConfig>:
 800232c:	b580      	push	{r7, lr}
 800232e:	b084      	sub	sp, #16
 8002330:	af00      	add	r7, sp, #0
 8002332:	6078      	str	r0, [r7, #4]
 8002334:	6039      	str	r1, [r7, #0]
 8002336:	687b      	ldr	r3, [r7, #4]
 8002338:	681b      	ldr	r3, [r3, #0]
 800233a:	60fb      	str	r3, [r7, #12]
 800233c:	687b      	ldr	r3, [r7, #4]
 800233e:	4a34      	ldr	r2, [pc, #208]	; (8002410 <TIM_Base_SetConfig+0xe4>)
 8002340:	4293      	cmp	r3, r2
 8002342:	d008      	beq.n	8002356 <TIM_Base_SetConfig+0x2a>
 8002344:	687a      	ldr	r2, [r7, #4]
 8002346:	2380      	movs	r3, #128	; 0x80
 8002348:	05db      	lsls	r3, r3, #23
 800234a:	429a      	cmp	r2, r3
 800234c:	d003      	beq.n	8002356 <TIM_Base_SetConfig+0x2a>
 800234e:	687b      	ldr	r3, [r7, #4]
 8002350:	4a30      	ldr	r2, [pc, #192]	; (8002414 <TIM_Base_SetConfig+0xe8>)
 8002352:	4293      	cmp	r3, r2
 8002354:	d108      	bne.n	8002368 <TIM_Base_SetConfig+0x3c>
 8002356:	68fb      	ldr	r3, [r7, #12]
 8002358:	2270      	movs	r2, #112	; 0x70
 800235a:	4393      	bics	r3, r2
 800235c:	60fb      	str	r3, [r7, #12]
 800235e:	683b      	ldr	r3, [r7, #0]
 8002360:	685b      	ldr	r3, [r3, #4]
 8002362:	68fa      	ldr	r2, [r7, #12]
 8002364:	4313      	orrs	r3, r2
 8002366:	60fb      	str	r3, [r7, #12]
 8002368:	687b      	ldr	r3, [r7, #4]
 800236a:	4a29      	ldr	r2, [pc, #164]	; (8002410 <TIM_Base_SetConfig+0xe4>)
 800236c:	4293      	cmp	r3, r2
 800236e:	d018      	beq.n	80023a2 <TIM_Base_SetConfig+0x76>
 8002370:	687a      	ldr	r2, [r7, #4]
 8002372:	2380      	movs	r3, #128	; 0x80
 8002374:	05db      	lsls	r3, r3, #23
 8002376:	429a      	cmp	r2, r3
 8002378:	d013      	beq.n	80023a2 <TIM_Base_SetConfig+0x76>
 800237a:	687b      	ldr	r3, [r7, #4]
 800237c:	4a25      	ldr	r2, [pc, #148]	; (8002414 <TIM_Base_SetConfig+0xe8>)
 800237e:	4293      	cmp	r3, r2
 8002380:	d00f      	beq.n	80023a2 <TIM_Base_SetConfig+0x76>
 8002382:	687b      	ldr	r3, [r7, #4]
 8002384:	4a24      	ldr	r2, [pc, #144]	; (8002418 <TIM_Base_SetConfig+0xec>)
 8002386:	4293      	cmp	r3, r2
 8002388:	d00b      	beq.n	80023a2 <TIM_Base_SetConfig+0x76>
 800238a:	687b      	ldr	r3, [r7, #4]
 800238c:	4a23      	ldr	r2, [pc, #140]	; (800241c <TIM_Base_SetConfig+0xf0>)
 800238e:	4293      	cmp	r3, r2
 8002390:	d007      	beq.n	80023a2 <TIM_Base_SetConfig+0x76>
 8002392:	687b      	ldr	r3, [r7, #4]
 8002394:	4a22      	ldr	r2, [pc, #136]	; (8002420 <TIM_Base_SetConfig+0xf4>)
 8002396:	4293      	cmp	r3, r2
 8002398:	d003      	beq.n	80023a2 <TIM_Base_SetConfig+0x76>
 800239a:	687b      	ldr	r3, [r7, #4]
 800239c:	4a21      	ldr	r2, [pc, #132]	; (8002424 <TIM_Base_SetConfig+0xf8>)
 800239e:	4293      	cmp	r3, r2
 80023a0:	d108      	bne.n	80023b4 <TIM_Base_SetConfig+0x88>
 80023a2:	68fb      	ldr	r3, [r7, #12]
 80023a4:	4a20      	ldr	r2, [pc, #128]	; (8002428 <TIM_Base_SetConfig+0xfc>)
 80023a6:	4013      	ands	r3, r2
 80023a8:	60fb      	str	r3, [r7, #12]
 80023aa:	683b      	ldr	r3, [r7, #0]
 80023ac:	68db      	ldr	r3, [r3, #12]
 80023ae:	68fa      	ldr	r2, [r7, #12]
 80023b0:	4313      	orrs	r3, r2
 80023b2:	60fb      	str	r3, [r7, #12]
 80023b4:	68fb      	ldr	r3, [r7, #12]
 80023b6:	2280      	movs	r2, #128	; 0x80
 80023b8:	4393      	bics	r3, r2
 80023ba:	001a      	movs	r2, r3
 80023bc:	683b      	ldr	r3, [r7, #0]
 80023be:	695b      	ldr	r3, [r3, #20]
 80023c0:	4313      	orrs	r3, r2
 80023c2:	60fb      	str	r3, [r7, #12]
 80023c4:	687b      	ldr	r3, [r7, #4]
 80023c6:	68fa      	ldr	r2, [r7, #12]
 80023c8:	601a      	str	r2, [r3, #0]
 80023ca:	683b      	ldr	r3, [r7, #0]
 80023cc:	689a      	ldr	r2, [r3, #8]
 80023ce:	687b      	ldr	r3, [r7, #4]
 80023d0:	62da      	str	r2, [r3, #44]	; 0x2c
 80023d2:	683b      	ldr	r3, [r7, #0]
 80023d4:	681a      	ldr	r2, [r3, #0]
 80023d6:	687b      	ldr	r3, [r7, #4]
 80023d8:	629a      	str	r2, [r3, #40]	; 0x28
 80023da:	687b      	ldr	r3, [r7, #4]
 80023dc:	4a0c      	ldr	r2, [pc, #48]	; (8002410 <TIM_Base_SetConfig+0xe4>)
 80023de:	4293      	cmp	r3, r2
 80023e0:	d00b      	beq.n	80023fa <TIM_Base_SetConfig+0xce>
 80023e2:	687b      	ldr	r3, [r7, #4]
 80023e4:	4a0d      	ldr	r2, [pc, #52]	; (800241c <TIM_Base_SetConfig+0xf0>)
 80023e6:	4293      	cmp	r3, r2
 80023e8:	d007      	beq.n	80023fa <TIM_Base_SetConfig+0xce>
 80023ea:	687b      	ldr	r3, [r7, #4]
 80023ec:	4a0c      	ldr	r2, [pc, #48]	; (8002420 <TIM_Base_SetConfig+0xf4>)
 80023ee:	4293      	cmp	r3, r2
 80023f0:	d003      	beq.n	80023fa <TIM_Base_SetConfig+0xce>
 80023f2:	687b      	ldr	r3, [r7, #4]
 80023f4:	4a0b      	ldr	r2, [pc, #44]	; (8002424 <TIM_Base_SetConfig+0xf8>)
 80023f6:	4293      	cmp	r3, r2
 80023f8:	d103      	bne.n	8002402 <TIM_Base_SetConfig+0xd6>
 80023fa:	683b      	ldr	r3, [r7, #0]
 80023fc:	691a      	ldr	r2, [r3, #16]
 80023fe:	687b      	ldr	r3, [r7, #4]
 8002400:	631a      	str	r2, [r3, #48]	; 0x30
 8002402:	687b      	ldr	r3, [r7, #4]
 8002404:	2201      	movs	r2, #1
 8002406:	615a      	str	r2, [r3, #20]
 8002408:	46c0      	nop			; (mov r8, r8)
 800240a:	46bd      	mov	sp, r7
 800240c:	b004      	add	sp, #16
 800240e:	bd80      	pop	{r7, pc}
 8002410:	40012c00 	.word	0x40012c00
 8002414:	40000400 	.word	0x40000400
 8002418:	40002000 	.word	0x40002000
 800241c:	40014000 	.word	0x40014000
 8002420:	40014400 	.word	0x40014400
 8002424:	40014800 	.word	0x40014800
 8002428:	fffffcff 	.word	0xfffffcff

0800242c <TIM_TI1_ConfigInputStage>:
 800242c:	b580      	push	{r7, lr}
 800242e:	b086      	sub	sp, #24
 8002430:	af00      	add	r7, sp, #0
 8002432:	60f8      	str	r0, [r7, #12]
 8002434:	60b9      	str	r1, [r7, #8]
 8002436:	607a      	str	r2, [r7, #4]
 8002438:	68fb      	ldr	r3, [r7, #12]
 800243a:	6a1b      	ldr	r3, [r3, #32]
 800243c:	617b      	str	r3, [r7, #20]
 800243e:	68fb      	ldr	r3, [r7, #12]
 8002440:	6a1b      	ldr	r3, [r3, #32]
 8002442:	2201      	movs	r2, #1
 8002444:	4393      	bics	r3, r2
 8002446:	001a      	movs	r2, r3
 8002448:	68fb      	ldr	r3, [r7, #12]
 800244a:	621a      	str	r2, [r3, #32]
 800244c:	68fb      	ldr	r3, [r7, #12]
 800244e:	699b      	ldr	r3, [r3, #24]
 8002450:	613b      	str	r3, [r7, #16]
 8002452:	693b      	ldr	r3, [r7, #16]
 8002454:	22f0      	movs	r2, #240	; 0xf0
 8002456:	4393      	bics	r3, r2
 8002458:	613b      	str	r3, [r7, #16]
 800245a:	687b      	ldr	r3, [r7, #4]
 800245c:	011b      	lsls	r3, r3, #4
 800245e:	693a      	ldr	r2, [r7, #16]
 8002460:	4313      	orrs	r3, r2
 8002462:	613b      	str	r3, [r7, #16]
 8002464:	697b      	ldr	r3, [r7, #20]
 8002466:	220a      	movs	r2, #10
 8002468:	4393      	bics	r3, r2
 800246a:	617b      	str	r3, [r7, #20]
 800246c:	697a      	ldr	r2, [r7, #20]
 800246e:	68bb      	ldr	r3, [r7, #8]
 8002470:	4313      	orrs	r3, r2
 8002472:	617b      	str	r3, [r7, #20]
 8002474:	68fb      	ldr	r3, [r7, #12]
 8002476:	693a      	ldr	r2, [r7, #16]
 8002478:	619a      	str	r2, [r3, #24]
 800247a:	68fb      	ldr	r3, [r7, #12]
 800247c:	697a      	ldr	r2, [r7, #20]
 800247e:	621a      	str	r2, [r3, #32]
 8002480:	46c0      	nop			; (mov r8, r8)
 8002482:	46bd      	mov	sp, r7
 8002484:	b006      	add	sp, #24
 8002486:	bd80      	pop	{r7, pc}

08002488 <TIM_TI2_ConfigInputStage>:
 8002488:	b580      	push	{r7, lr}
 800248a:	b086      	sub	sp, #24
 800248c:	af00      	add	r7, sp, #0
 800248e:	60f8      	str	r0, [r7, #12]
 8002490:	60b9      	str	r1, [r7, #8]
 8002492:	607a      	str	r2, [r7, #4]
 8002494:	68fb      	ldr	r3, [r7, #12]
 8002496:	6a1b      	ldr	r3, [r3, #32]
 8002498:	2210      	movs	r2, #16
 800249a:	4393      	bics	r3, r2
 800249c:	001a      	movs	r2, r3
 800249e:	68fb      	ldr	r3, [r7, #12]
 80024a0:	621a      	str	r2, [r3, #32]
 80024a2:	68fb      	ldr	r3, [r7, #12]
 80024a4:	699b      	ldr	r3, [r3, #24]
 80024a6:	617b      	str	r3, [r7, #20]
 80024a8:	68fb      	ldr	r3, [r7, #12]
 80024aa:	6a1b      	ldr	r3, [r3, #32]
 80024ac:	613b      	str	r3, [r7, #16]
 80024ae:	697b      	ldr	r3, [r7, #20]
 80024b0:	4a0d      	ldr	r2, [pc, #52]	; (80024e8 <TIM_TI2_ConfigInputStage+0x60>)
 80024b2:	4013      	ands	r3, r2
 80024b4:	617b      	str	r3, [r7, #20]
 80024b6:	687b      	ldr	r3, [r7, #4]
 80024b8:	031b      	lsls	r3, r3, #12
 80024ba:	697a      	ldr	r2, [r7, #20]
 80024bc:	4313      	orrs	r3, r2
 80024be:	617b      	str	r3, [r7, #20]
 80024c0:	693b      	ldr	r3, [r7, #16]
 80024c2:	22a0      	movs	r2, #160	; 0xa0
 80024c4:	4393      	bics	r3, r2
 80024c6:	613b      	str	r3, [r7, #16]
 80024c8:	68bb      	ldr	r3, [r7, #8]
 80024ca:	011b      	lsls	r3, r3, #4
 80024cc:	693a      	ldr	r2, [r7, #16]
 80024ce:	4313      	orrs	r3, r2
 80024d0:	613b      	str	r3, [r7, #16]
 80024d2:	68fb      	ldr	r3, [r7, #12]
 80024d4:	697a      	ldr	r2, [r7, #20]
 80024d6:	619a      	str	r2, [r3, #24]
 80024d8:	68fb      	ldr	r3, [r7, #12]
 80024da:	693a      	ldr	r2, [r7, #16]
 80024dc:	621a      	str	r2, [r3, #32]
 80024de:	46c0      	nop			; (mov r8, r8)
 80024e0:	46bd      	mov	sp, r7
 80024e2:	b006      	add	sp, #24
 80024e4:	bd80      	pop	{r7, pc}
 80024e6:	46c0      	nop			; (mov r8, r8)
 80024e8:	ffff0fff 	.word	0xffff0fff

080024ec <TIM_ITRx_SetConfig>:
 80024ec:	b580      	push	{r7, lr}
 80024ee:	b084      	sub	sp, #16
 80024f0:	af00      	add	r7, sp, #0
 80024f2:	6078      	str	r0, [r7, #4]
 80024f4:	6039      	str	r1, [r7, #0]
 80024f6:	687b      	ldr	r3, [r7, #4]
 80024f8:	689b      	ldr	r3, [r3, #8]
 80024fa:	60fb      	str	r3, [r7, #12]
 80024fc:	68fb      	ldr	r3, [r7, #12]
 80024fe:	2270      	movs	r2, #112	; 0x70
 8002500:	4393      	bics	r3, r2
 8002502:	60fb      	str	r3, [r7, #12]
 8002504:	683a      	ldr	r2, [r7, #0]
 8002506:	68fb      	ldr	r3, [r7, #12]
 8002508:	4313      	orrs	r3, r2
 800250a:	2207      	movs	r2, #7
 800250c:	4313      	orrs	r3, r2
 800250e:	60fb      	str	r3, [r7, #12]
 8002510:	687b      	ldr	r3, [r7, #4]
 8002512:	68fa      	ldr	r2, [r7, #12]
 8002514:	609a      	str	r2, [r3, #8]
 8002516:	46c0      	nop			; (mov r8, r8)
 8002518:	46bd      	mov	sp, r7
 800251a:	b004      	add	sp, #16
 800251c:	bd80      	pop	{r7, pc}
	...

08002520 <TIM_ETR_SetConfig>:
 8002520:	b580      	push	{r7, lr}
 8002522:	b086      	sub	sp, #24
 8002524:	af00      	add	r7, sp, #0
 8002526:	60f8      	str	r0, [r7, #12]
 8002528:	60b9      	str	r1, [r7, #8]
 800252a:	607a      	str	r2, [r7, #4]
 800252c:	603b      	str	r3, [r7, #0]
 800252e:	68fb      	ldr	r3, [r7, #12]
 8002530:	689b      	ldr	r3, [r3, #8]
 8002532:	617b      	str	r3, [r7, #20]
 8002534:	697b      	ldr	r3, [r7, #20]
 8002536:	4a09      	ldr	r2, [pc, #36]	; (800255c <TIM_ETR_SetConfig+0x3c>)
 8002538:	4013      	ands	r3, r2
 800253a:	617b      	str	r3, [r7, #20]
 800253c:	683b      	ldr	r3, [r7, #0]
 800253e:	021a      	lsls	r2, r3, #8
 8002540:	687b      	ldr	r3, [r7, #4]
 8002542:	431a      	orrs	r2, r3
 8002544:	68bb      	ldr	r3, [r7, #8]
 8002546:	4313      	orrs	r3, r2
 8002548:	697a      	ldr	r2, [r7, #20]
 800254a:	4313      	orrs	r3, r2
 800254c:	617b      	str	r3, [r7, #20]
 800254e:	68fb      	ldr	r3, [r7, #12]
 8002550:	697a      	ldr	r2, [r7, #20]
 8002552:	609a      	str	r2, [r3, #8]
 8002554:	46c0      	nop			; (mov r8, r8)
 8002556:	46bd      	mov	sp, r7
 8002558:	b006      	add	sp, #24
 800255a:	bd80      	pop	{r7, pc}
 800255c:	ffff00ff 	.word	0xffff00ff

08002560 <HAL_TIMEx_MasterConfigSynchronization>:
 8002560:	b580      	push	{r7, lr}
 8002562:	b084      	sub	sp, #16
 8002564:	af00      	add	r7, sp, #0
 8002566:	6078      	str	r0, [r7, #4]
 8002568:	6039      	str	r1, [r7, #0]
 800256a:	687b      	ldr	r3, [r7, #4]
 800256c:	223c      	movs	r2, #60	; 0x3c
 800256e:	5c9b      	ldrb	r3, [r3, r2]
 8002570:	2b01      	cmp	r3, #1
 8002572:	d101      	bne.n	8002578 <HAL_TIMEx_MasterConfigSynchronization+0x18>
 8002574:	2302      	movs	r3, #2
 8002576:	e047      	b.n	8002608 <HAL_TIMEx_MasterConfigSynchronization+0xa8>
 8002578:	687b      	ldr	r3, [r7, #4]
 800257a:	223c      	movs	r2, #60	; 0x3c
 800257c:	2101      	movs	r1, #1
 800257e:	5499      	strb	r1, [r3, r2]
 8002580:	687b      	ldr	r3, [r7, #4]
 8002582:	223d      	movs	r2, #61	; 0x3d
 8002584:	2102      	movs	r1, #2
 8002586:	5499      	strb	r1, [r3, r2]
 8002588:	687b      	ldr	r3, [r7, #4]
 800258a:	681b      	ldr	r3, [r3, #0]
 800258c:	685b      	ldr	r3, [r3, #4]
 800258e:	60fb      	str	r3, [r7, #12]
 8002590:	687b      	ldr	r3, [r7, #4]
 8002592:	681b      	ldr	r3, [r3, #0]
 8002594:	689b      	ldr	r3, [r3, #8]
 8002596:	60bb      	str	r3, [r7, #8]
 8002598:	68fb      	ldr	r3, [r7, #12]
 800259a:	2270      	movs	r2, #112	; 0x70
 800259c:	4393      	bics	r3, r2
 800259e:	60fb      	str	r3, [r7, #12]
 80025a0:	683b      	ldr	r3, [r7, #0]
 80025a2:	681b      	ldr	r3, [r3, #0]
 80025a4:	68fa      	ldr	r2, [r7, #12]
 80025a6:	4313      	orrs	r3, r2
 80025a8:	60fb      	str	r3, [r7, #12]
 80025aa:	687b      	ldr	r3, [r7, #4]
 80025ac:	681b      	ldr	r3, [r3, #0]
 80025ae:	68fa      	ldr	r2, [r7, #12]
 80025b0:	605a      	str	r2, [r3, #4]
 80025b2:	687b      	ldr	r3, [r7, #4]
 80025b4:	681b      	ldr	r3, [r3, #0]
 80025b6:	4a16      	ldr	r2, [pc, #88]	; (8002610 <HAL_TIMEx_MasterConfigSynchronization+0xb0>)
 80025b8:	4293      	cmp	r3, r2
 80025ba:	d00f      	beq.n	80025dc <HAL_TIMEx_MasterConfigSynchronization+0x7c>
 80025bc:	687b      	ldr	r3, [r7, #4]
 80025be:	681a      	ldr	r2, [r3, #0]
 80025c0:	2380      	movs	r3, #128	; 0x80
 80025c2:	05db      	lsls	r3, r3, #23
 80025c4:	429a      	cmp	r2, r3
 80025c6:	d009      	beq.n	80025dc <HAL_TIMEx_MasterConfigSynchronization+0x7c>
 80025c8:	687b      	ldr	r3, [r7, #4]
 80025ca:	681b      	ldr	r3, [r3, #0]
 80025cc:	4a11      	ldr	r2, [pc, #68]	; (8002614 <HAL_TIMEx_MasterConfigSynchronization+0xb4>)
 80025ce:	4293      	cmp	r3, r2
 80025d0:	d004      	beq.n	80025dc <HAL_TIMEx_MasterConfigSynchronization+0x7c>
 80025d2:	687b      	ldr	r3, [r7, #4]
 80025d4:	681b      	ldr	r3, [r3, #0]
 80025d6:	4a10      	ldr	r2, [pc, #64]	; (8002618 <HAL_TIMEx_MasterConfigSynchronization+0xb8>)
 80025d8:	4293      	cmp	r3, r2
 80025da:	d10c      	bne.n	80025f6 <HAL_TIMEx_MasterConfigSynchronization+0x96>
 80025dc:	68bb      	ldr	r3, [r7, #8]
 80025de:	2280      	movs	r2, #128	; 0x80
 80025e0:	4393      	bics	r3, r2
 80025e2:	60bb      	str	r3, [r7, #8]
 80025e4:	683b      	ldr	r3, [r7, #0]
 80025e6:	685b      	ldr	r3, [r3, #4]
 80025e8:	68ba      	ldr	r2, [r7, #8]
 80025ea:	4313      	orrs	r3, r2
 80025ec:	60bb      	str	r3, [r7, #8]
 80025ee:	687b      	ldr	r3, [r7, #4]
 80025f0:	681b      	ldr	r3, [r3, #0]
 80025f2:	68ba      	ldr	r2, [r7, #8]
 80025f4:	609a      	str	r2, [r3, #8]
 80025f6:	687b      	ldr	r3, [r7, #4]
 80025f8:	223d      	movs	r2, #61	; 0x3d
 80025fa:	2101      	movs	r1, #1
 80025fc:	5499      	strb	r1, [r3, r2]
 80025fe:	687b      	ldr	r3, [r7, #4]
 8002600:	223c      	movs	r2, #60	; 0x3c
 8002602:	2100      	movs	r1, #0
 8002604:	5499      	strb	r1, [r3, r2]
 8002606:	2300      	movs	r3, #0
 8002608:	0018      	movs	r0, r3
 800260a:	46bd      	mov	sp, r7
 800260c:	b004      	add	sp, #16
 800260e:	bd80      	pop	{r7, pc}
 8002610:	40012c00 	.word	0x40012c00
 8002614:	40000400 	.word	0x40000400
 8002618:	40014000 	.word	0x40014000

0800261c <HAL_TIMEx_CommutCallback>:
 800261c:	b580      	push	{r7, lr}
 800261e:	b082      	sub	sp, #8
 8002620:	af00      	add	r7, sp, #0
 8002622:	6078      	str	r0, [r7, #4]
 8002624:	46c0      	nop			; (mov r8, r8)
 8002626:	46bd      	mov	sp, r7
 8002628:	b002      	add	sp, #8
 800262a:	bd80      	pop	{r7, pc}

0800262c <HAL_TIMEx_BreakCallback>:
 800262c:	b580      	push	{r7, lr}
 800262e:	b082      	sub	sp, #8
 8002630:	af00      	add	r7, sp, #0
 8002632:	6078      	str	r0, [r7, #4]
 8002634:	46c0      	nop			; (mov r8, r8)
 8002636:	46bd      	mov	sp, r7
 8002638:	b002      	add	sp, #8
 800263a:	bd80      	pop	{r7, pc}

0800263c <memset>:
 800263c:	0003      	movs	r3, r0
 800263e:	1882      	adds	r2, r0, r2
 8002640:	4293      	cmp	r3, r2
 8002642:	d100      	bne.n	8002646 <memset+0xa>
 8002644:	4770      	bx	lr
 8002646:	7019      	strb	r1, [r3, #0]
 8002648:	3301      	adds	r3, #1
 800264a:	e7f9      	b.n	8002640 <memset+0x4>

0800264c <__libc_init_array>:
 800264c:	b570      	push	{r4, r5, r6, lr}
 800264e:	2600      	movs	r6, #0
 8002650:	4c0c      	ldr	r4, [pc, #48]	; (8002684 <__libc_init_array+0x38>)
 8002652:	4d0d      	ldr	r5, [pc, #52]	; (8002688 <__libc_init_array+0x3c>)
 8002654:	1b64      	subs	r4, r4, r5
 8002656:	10a4      	asrs	r4, r4, #2
 8002658:	42a6      	cmp	r6, r4
 800265a:	d109      	bne.n	8002670 <__libc_init_array+0x24>
 800265c:	2600      	movs	r6, #0
 800265e:	f000 f819 	bl	8002694 <_init>
 8002662:	4c0a      	ldr	r4, [pc, #40]	; (800268c <__libc_init_array+0x40>)
 8002664:	4d0a      	ldr	r5, [pc, #40]	; (8002690 <__libc_init_array+0x44>)
 8002666:	1b64      	subs	r4, r4, r5
 8002668:	10a4      	asrs	r4, r4, #2
 800266a:	42a6      	cmp	r6, r4
 800266c:	d105      	bne.n	800267a <__libc_init_array+0x2e>
 800266e:	bd70      	pop	{r4, r5, r6, pc}
 8002670:	00b3      	lsls	r3, r6, #2
 8002672:	58eb      	ldr	r3, [r5, r3]
 8002674:	4798      	blx	r3
 8002676:	3601      	adds	r6, #1
 8002678:	e7ee      	b.n	8002658 <__libc_init_array+0xc>
 800267a:	00b3      	lsls	r3, r6, #2
 800267c:	58eb      	ldr	r3, [r5, r3]
 800267e:	4798      	blx	r3
 8002680:	3601      	adds	r6, #1
 8002682:	e7f2      	b.n	800266a <__libc_init_array+0x1e>
 8002684:	080026e4 	.word	0x080026e4
 8002688:	080026e4 	.word	0x080026e4
 800268c:	080026e8 	.word	0x080026e8
 8002690:	080026e4 	.word	0x080026e4

08002694 <_init>:
 8002694:	b5f8      	push	{r3, r4, r5, r6, r7, lr}
 8002696:	46c0      	nop			; (mov r8, r8)
 8002698:	bcf8      	pop	{r3, r4, r5, r6, r7}
 800269a:	bc08      	pop	{r3}
 800269c:	469e      	mov	lr, r3
 800269e:	4770      	bx	lr

080026a0 <_fini>:
 80026a0:	b5f8      	push	{r3, r4, r5, r6, r7, lr}
 80026a2:	46c0      	nop			; (mov r8, r8)
 80026a4:	bcf8      	pop	{r3, r4, r5, r6, r7}
 80026a6:	bc08      	pop	{r3}
 80026a8:	469e      	mov	lr, r3
 80026aa:	4770      	bx	lr
